(lp0
(lp1
I5
aI-8
aI1
aI3
aI2
aI-3
aI1
aI8
aa(lp2
I1
aI3
aI2
aI-3
aI1
aI8
aI5
aI-8
aa(lp3
I2
aI-3
aI1
aI8
aI5
aI-8
aI1
aI8
aa(lp4
I1
aI8
aI5
aI-8
aI1
aI8
aI5
aI-8
aa(lp5
I5
aI-8
aI1
aI8
aI5
aI-8
aI1
aI3
aa(lp6
I1
aI8
aI5
aI-8
aI1
aI3
aI2
aI-3
aa(lp7
I5
aI-8
aI1
aI3
aI2
aI-3
aI1
aI8
aa(lp8
I1
aI3
aI2
aI-3
aI1
aI8
aI5
aI-8
aa(lp9
I2
aI-3
aI1
aI8
aI5
aI-8
aI1
aI10
aa(lp10
I1
aI8
aI5
aI-8
aI1
aI10
aI5
aI-9
aa(lp11
I5
aI-8
aI1
aI10
aI5
aI-9
aI1
aI2
aa(lp12
I1
aI10
aI5
aI-9
aI1
aI2
aI2
aI-2
aa(lp13
I5
aI-9
aI1
aI2
aI2
aI-2
aI1
aI9
aa(lp14
I1
aI2
aI2
aI-2
aI1
aI9
aI5
aI-9
aa(lp15
I2
aI-2
aI1
aI9
aI5
aI-9
aI1
aI7
aa(lp16
I1
aI9
aI5
aI-9
aI1
aI7
aI5
aI-8
aa(lp17
I5
aI-9
aI1
aI7
aI5
aI-8
aI1
aI3
aa(lp18
I1
aI7
aI5
aI-8
aI1
aI3
aI2
aI-3
aa(lp19
I5
aI-8
aI1
aI3
aI2
aI-3
aI1
aI8
aa(lp20
I1
aI3
aI2
aI-3
aI1
aI8
aI5
aI-8
aa(lp21
I2
aI-3
aI1
aI8
aI5
aI-8
aI1
aI7
aa(lp22
I1
aI8
aI5
aI-8
aI1
aI7
aI5
aI-9
aa(lp23
I5
aI-8
aI1
aI7
aI5
aI-9
aI1
aI5
aa(lp24
I1
aI7
aI5
aI-9
aI1
aI5
aI2
aI-5
aa(lp25
I5
aI-9
aI1
aI5
aI2
aI-5
aI1
aI9
aa(lp26
I1
aI5
aI2
aI-5
aI1
aI9
aI5
aI-9
aa(lp27
I2
aI-5
aI1
aI9
aI5
aI-9
aI1
aI9
aa(lp28
I1
aI9
aI5
aI-9
aI1
aI9
aI5
aI-9
aa(lp29
I5
aI-9
aI1
aI9
aI5
aI-9
aI1
aI5
aa(lp30
I1
aI9
aI5
aI-9
aI1
aI5
aI2
aI-5
aa(lp31
I5
aI-9
aI1
aI5
aI2
aI-5
aI1
aI9
aa(lp32
I1
aI5
aI2
aI-5
aI1
aI9
aI5
aI-9
aa(lp33
I2
aI-5
aI1
aI9
aI5
aI-9
aI1
aI10
aa(lp34
I1
aI9
aI5
aI-9
aI1
aI10
aI5
aI-8
aa(lp35
I5
aI-9
aI1
aI10
aI5
aI-8
aI1
aI3
aa(lp36
I1
aI10
aI5
aI-8
aI1
aI3
aI2
aI-3
aa(lp37
I5
aI-8
aI1
aI3
aI2
aI-3
aI1
aI8
aa(lp38
I1
aI3
aI2
aI-3
aI1
aI8
aI5
aI-8
aa(lp39
I2
aI-3
aI1
aI8
aI5
aI-8
aI1
aI8
aa(lp40
I1
aI8
aI5
aI-8
aI1
aI8
aI5
aI-8
aa(lp41
I5
aI-8
aI1
aI8
aI5
aI-8
aI1
aI3
aa(lp42
I1
aI8
aI5
aI-8
aI1
aI3
aI2
aI-3
aa(lp43
I5
aI-8
aI1
aI3
aI2
aI-3
aI1
aI8
aa(lp44
I1
aI3
aI2
aI-3
aI1
aI8
aI5
aI-8
aa(lp45
I2
aI-3
aI1
aI8
aI5
aI-8
aI1
aI12
aa(lp46
I1
aI8
aI5
aI-8
aI1
aI12
aI5
aI-9
aa(lp47
I5
aI-8
aI1
aI12
aI5
aI-9
aI1
aI5
aa(lp48
I1
aI12
aI5
aI-9
aI1
aI5
aI3
aI-5
aa(lp49
I5
aI-9
aI1
aI5
aI3
aI-5
aI1
aI9
aa(lp50
I1
aI5
aI3
aI-5
aI1
aI9
aI5
aI-9
aa(lp51
I3
aI-5
aI1
aI9
aI5
aI-9
aI1
aI9
aa(lp52
I1
aI9
aI5
aI-9
aI1
aI9
aI5
aI-9
aa(lp53
I5
aI-9
aI1
aI9
aI5
aI-9
aI1
aI5
aa(lp54
I1
aI9
aI5
aI-9
aI1
aI5
aI3
aI-5
aa(lp55
I5
aI-9
aI1
aI5
aI3
aI-5
aI1
aI9
aa(lp56
I1
aI5
aI3
aI-5
aI1
aI9
aI5
aI-9
aa(lp57
I3
aI-5
aI1
aI9
aI5
aI-9
aI1
aI10
aa(lp58
I1
aI9
aI5
aI-9
aI1
aI10
aI5
aI-10
aa(lp59
I5
aI-9
aI1
aI10
aI5
aI-10
aI1
aI7
aa(lp60
I1
aI10
aI5
aI-10
aI1
aI7
aI3
aI-7
aa(lp61
I5
aI-10
aI1
aI7
aI3
aI-7
aI1
aI10
aa(lp62
I1
aI7
aI3
aI-7
aI1
aI10
aI5
aI-10
aa(lp63
I3
aI-7
aI1
aI10
aI5
aI-10
aI1
aI9
aa(lp64
I1
aI10
aI5
aI-10
aI1
aI9
aI5
aI-9
aa(lp65
I5
aI-10
aI1
aI9
aI5
aI-9
aI1
aI5
aa(lp66
I1
aI9
aI5
aI-9
aI1
aI5
aI2
aI-5
aa(lp67
I5
aI-9
aI1
aI5
aI2
aI-5
aI1
aI9
aa(lp68
I1
aI5
aI2
aI-5
aI1
aI9
aI5
aI-9
aa(lp69
I2
aI-5
aI1
aI9
aI5
aI-9
aI1
aI7
aa(lp70
I1
aI9
aI5
aI-9
aI1
aI7
aI2
aI-1
aa(lp71
I5
aI-9
aI1
aI7
aI2
aI-1
aI3
aI1
aa(lp72
I1
aI7
aI2
aI-1
aI3
aI1
aI2
aI5
aa(lp73
I2
aI-1
aI3
aI1
aI2
aI5
aI5
aI-5
aa(lp74
I3
aI1
aI2
aI5
aI5
aI-5
aI2
aI-3
aa(lp75
I2
aI5
aI5
aI-5
aI2
aI-3
aI1
aI-2
aa(lp76
I5
aI-5
aI2
aI-3
aI1
aI-2
aI2
aI-1
aa(lp77
I2
aI-3
aI1
aI-2
aI2
aI-1
aI1
aI1
aa(lp78
I1
aI-2
aI2
aI-1
aI1
aI1
aI2
aI5
aa(lp79
I2
aI-1
aI1
aI1
aI2
aI5
aI5
aI-2
aa(lp80
I1
aI1
aI2
aI5
aI5
aI-2
aI4
aI-3
aa(lp81
I2
aI5
aI5
aI-2
aI4
aI-3
aI2
aI-2
aa(lp82
I5
aI-2
aI4
aI-3
aI2
aI-2
aI1
aI4
aa(lp83
I4
aI-3
aI2
aI-2
aI1
aI4
aI3
aI3
aa(lp84
I2
aI-2
aI1
aI4
aI3
aI3
aI5
aI-3
aa(lp85
I1
aI4
aI3
aI3
aI5
aI-3
aI3
aI3
aa(lp86
I3
aI3
aI5
aI-3
aI3
aI3
aI5
aI-3
aa(lp87
I5
aI-3
aI3
aI3
aI5
aI-3
aI3
aI-4
aa(lp88
I3
aI3
aI5
aI-3
aI3
aI-4
aI1
aI0
aa(lp89
I5
aI-3
aI3
aI-4
aI1
aI0
aI1
aI4
aa(lp90
I3
aI-4
aI1
aI0
aI1
aI4
aI2
aI3
aa(lp91
I1
aI0
aI1
aI4
aI2
aI3
aI3
aI5
aa(lp92
I1
aI4
aI2
aI3
aI3
aI5
aI5
aI-5
aa(lp93
I2
aI3
aI3
aI5
aI5
aI-5
aI3
aI-3
aa(lp94
I3
aI5
aI5
aI-5
aI3
aI-3
aI2
aI-4
aa(lp95
I5
aI-5
aI3
aI-3
aI2
aI-4
aI1
aI4
aa(lp96
I3
aI-3
aI2
aI-4
aI1
aI4
aI2
aI3
aa(lp97
I2
aI-4
aI1
aI4
aI2
aI3
aI3
aI5
aa(lp98
I1
aI4
aI2
aI3
aI3
aI5
aI5
aI-5
aa(lp99
I2
aI3
aI3
aI5
aI5
aI-5
aI3
aI-3
aa(lp100
I3
aI5
aI5
aI-5
aI3
aI-3
aI2
aI-4
aa(lp101
I5
aI-5
aI3
aI-3
aI2
aI-4
aI1
aI5
aa(lp102
I3
aI-3
aI2
aI-4
aI1
aI5
aI2
aI4
aa(lp103
I2
aI-4
aI1
aI5
aI2
aI4
aI3
aI3
aa(lp104
I1
aI5
aI2
aI4
aI3
aI3
aI5
aI-3
aa(lp105
I2
aI4
aI3
aI3
aI5
aI-3
aI3
aI-4
aa(lp106
I3
aI3
aI5
aI-3
aI3
aI-4
aI2
aI-5
aa(lp107
I5
aI-3
aI3
aI-4
aI2
aI-5
aI1
aI5
aa(lp108
I3
aI-4
aI2
aI-5
aI1
aI5
aI2
aI4
aa(lp109
I2
aI-5
aI1
aI5
aI2
aI4
aI3
aI3
aa(lp110
I1
aI5
aI2
aI4
aI3
aI3
aI5
aI-3
aa(lp111
I2
aI4
aI3
aI3
aI5
aI-3
aI3
aI-4
aa(lp112
I3
aI3
aI5
aI-3
aI3
aI-4
aI2
aI-5
aa(lp113
I5
aI-3
aI3
aI-4
aI2
aI-5
aI1
aI7
aa(lp114
I3
aI-4
aI2
aI-5
aI1
aI7
aI2
aI3
aa(lp115
I2
aI-5
aI1
aI7
aI2
aI3
aI4
aI2
aa(lp116
I1
aI7
aI2
aI3
aI4
aI2
aI5
aI-2
aa(lp117
I2
aI3
aI4
aI2
aI5
aI-2
aI4
aI-3
aa(lp118
I4
aI2
aI5
aI-2
aI4
aI-3
aI2
aI-7
aa(lp119
I5
aI-2
aI4
aI-3
aI2
aI-7
aI1
aI7
aa(lp120
I4
aI-3
aI2
aI-7
aI1
aI7
aI2
aI3
aa(lp121
I2
aI-7
aI1
aI7
aI2
aI3
aI4
aI2
aa(lp122
I1
aI7
aI2
aI3
aI4
aI2
aI5
aI-2
aa(lp123
I2
aI3
aI4
aI2
aI5
aI-2
aI4
aI-3
aa(lp124
I4
aI2
aI5
aI-2
aI4
aI-3
aI2
aI-7
aa(lp125
I5
aI-2
aI4
aI-3
aI2
aI-7
aI1
aI5
aa(lp126
I4
aI-3
aI2
aI-7
aI1
aI5
aI2
aI4
aa(lp127
I2
aI-7
aI1
aI5
aI2
aI4
aI3
aI3
aa(lp128
I1
aI5
aI2
aI4
aI3
aI3
aI5
aI-3
aa(lp129
I2
aI4
aI3
aI3
aI5
aI-3
aI3
aI-4
aa(lp130
I3
aI3
aI5
aI-3
aI3
aI-4
aI2
aI-5
aa(lp131
I5
aI-3
aI3
aI-4
aI2
aI-5
aI1
aI5
aa(lp132
I3
aI-4
aI2
aI-5
aI1
aI5
aI2
aI4
aa(lp133
I2
aI-5
aI1
aI5
aI2
aI4
aI3
aI3
aa(lp134
I1
aI5
aI2
aI4
aI3
aI3
aI5
aI-3
aa(lp135
I2
aI4
aI3
aI3
aI5
aI-3
aI3
aI-4
aa(lp136
I3
aI3
aI5
aI-3
aI3
aI-4
aI2
aI4
aa(lp137
I5
aI-3
aI3
aI-4
aI2
aI4
aI5
aI-9
aa(lp138
I3
aI-4
aI2
aI4
aI5
aI-9
aI1
aI5
aa(lp139
I2
aI4
aI5
aI-9
aI1
aI5
aI3
aI-5
aa(lp140
I5
aI-9
aI1
aI5
aI3
aI-5
aI1
aI9
aa(lp141
I1
aI5
aI3
aI-5
aI1
aI9
aI5
aI-9
aa(lp142
I3
aI-5
aI1
aI9
aI5
aI-9
aI1
aI9
aa(lp143
I1
aI9
aI5
aI-9
aI1
aI9
aI5
aI-9
aa(lp144
I5
aI-9
aI1
aI9
aI5
aI-9
aI1
aI5
aa(lp145
I1
aI9
aI5
aI-9
aI1
aI5
aI3
aI-5
aa(lp146
I5
aI-9
aI1
aI5
aI3
aI-5
aI1
aI9
aa(lp147
I1
aI5
aI3
aI-5
aI1
aI9
aI5
aI-9
aa(lp148
I3
aI-5
aI1
aI9
aI5
aI-9
aI1
aI10
aa(lp149
I1
aI9
aI5
aI-9
aI1
aI10
aI5
aI-8
aa(lp150
I5
aI-9
aI1
aI10
aI5
aI-8
aI1
aI5
aa(lp151
I1
aI10
aI5
aI-8
aI1
aI5
aI3
aI-5
aa(lp152
I5
aI-8
aI1
aI5
aI3
aI-5
aI1
aI8
aa(lp153
I1
aI5
aI3
aI-5
aI1
aI8
aI5
aI-8
aa(lp154
I3
aI-5
aI1
aI8
aI5
aI-8
aI1
aI12
aa(lp155
I1
aI8
aI5
aI-8
aI1
aI12
aI5
aI-9
aa(lp156
I5
aI-8
aI1
aI12
aI5
aI-9
aI1
aI3
aa(lp157
I1
aI12
aI5
aI-9
aI1
aI3
aI2
aI-3
aa(lp158
I5
aI-9
aI1
aI3
aI2
aI-3
aI1
aI9
aa(lp159
I1
aI3
aI2
aI-3
aI1
aI9
aI5
aI-9
aa(lp160
I2
aI-3
aI1
aI9
aI5
aI-9
aI1
aI7
aa(lp161
I1
aI9
aI5
aI-9
aI1
aI7
aI3
aI-1
aa(lp162
I5
aI-9
aI1
aI7
aI3
aI-1
aI2
aI3
aa(lp163
I1
aI7
aI3
aI-1
aI2
aI3
aI5
aI-2
aa(lp164
I3
aI-1
aI2
aI3
aI5
aI-2
aI4
aI-3
aa(lp165
I2
aI3
aI5
aI-2
aI4
aI-3
aI3
aI-4
aa(lp166
I5
aI-2
aI4
aI-3
aI3
aI-4
aI2
aI5
aa(lp167
I4
aI-3
aI3
aI-4
aI2
aI5
aI3
aI-1
aa(lp168
I3
aI-4
aI2
aI5
aI3
aI-1
aI2
aI3
aa(lp169
I2
aI5
aI3
aI-1
aI2
aI3
aI5
aI-2
aa(lp170
I3
aI-1
aI2
aI3
aI5
aI-2
aI3
aI-3
aa(lp171
I2
aI3
aI5
aI-2
aI3
aI-3
aI2
aI-3
aa(lp172
I5
aI-2
aI3
aI-3
aI2
aI-3
aI1
aI1
aa(lp173
I3
aI-3
aI2
aI-3
aI1
aI1
aI2
aI-5
aa(lp174
I2
aI-3
aI1
aI1
aI2
aI-5
aI1
aI9
aa(lp175
I1
aI1
aI2
aI-5
aI1
aI9
aI3
aI-9
aa(lp176
I2
aI-5
aI1
aI9
aI3
aI-9
aI1
aI12
aa(lp177
I1
aI9
aI3
aI-9
aI1
aI12
aI5
aI-3
aa(lp178
I3
aI-9
aI1
aI12
aI5
aI-3
aI3
aI-4
aa(lp179
I1
aI4
aI3
aI-4
aI1
aI4
aI3
aI3
aa(lp180
I3
aI-4
aI1
aI4
aI3
aI3
aI5
aI0
aa(lp181
I1
aI4
aI3
aI3
aI5
aI0
aI5
aI-3
aa(lp182
I3
aI3
aI5
aI0
aI5
aI-3
aI3
aI3
aa(lp183
I5
aI0
aI5
aI-3
aI3
aI3
aI5
aI-3
aa(lp184
I5
aI-3
aI3
aI3
aI5
aI-3
aI3
aI-4
aa(lp185
I3
aI3
aI5
aI-3
aI3
aI-4
aI1
aI2
aa(lp186
I5
aI-3
aI3
aI-4
aI1
aI2
aI2
aI5
aa(lp187
I3
aI-4
aI1
aI2
aI2
aI5
aI5
aI-2
aa(lp188
I1
aI2
aI2
aI5
aI5
aI-2
aI4
aI2
aa(lp189
I2
aI5
aI5
aI-2
aI4
aI2
aI5
aI-3
aa(lp190
I5
aI-2
aI4
aI2
aI5
aI-3
aI3
aI3
aa(lp191
I4
aI2
aI5
aI-3
aI3
aI3
aI5
aI-5
aa(lp192
I5
aI-3
aI3
aI3
aI5
aI-5
aI2
aI5
aa(lp193
I3
aI3
aI5
aI-5
aI2
aI5
aI5
aI-3
aa(lp194
I5
aI-5
aI2
aI5
aI5
aI-3
aI3
aI1
aa(lp195
I2
aI5
aI5
aI-3
aI3
aI1
aI4
aI2
aa(lp196
I5
aI-3
aI3
aI1
aI4
aI2
aI5
aI-3
aa(lp197
I3
aI1
aI4
aI2
aI5
aI-3
aI3
aI-4
aa(lp198
I4
aI2
aI5
aI-3
aI3
aI-4
aI1
aI2
aa(lp199
I5
aI-3
aI3
aI-4
aI1
aI2
aI2
aI-2
aa(lp200
I3
aI-4
aI1
aI2
aI2
aI-2
aI1
aI2
aa(lp201
I1
aI2
aI2
aI-2
aI1
aI2
aI2
aI2
aa(lp202
I2
aI-2
aI1
aI2
aI2
aI2
aI3
aI-4
aa(lp203
I1
aI2
aI2
aI2
aI3
aI-4
aI1
aI4
aa(lp204
I2
aI2
aI3
aI-4
aI1
aI4
aI3
aI-4
aa(lp205
I3
aI-4
aI1
aI4
aI3
aI-4
aI1
aI7
aa(lp206
I1
aI4
aI3
aI-4
aI1
aI7
aI5
aI0
aa(lp207
I3
aI-4
aI1
aI7
aI5
aI0
aI5
aI-3
aa(lp208
I1
aI7
aI5
aI0
aI5
aI-3
aI3
aI3
aa(lp209
I5
aI0
aI5
aI-3
aI3
aI3
aI5
aI-3
aa(lp210
I5
aI-3
aI3
aI3
aI5
aI-3
aI3
aI3
aa(lp211
I3
aI3
aI5
aI-3
aI3
aI3
aI5
aI-7
aa(lp212
I5
aI-3
aI3
aI3
aI5
aI-7
aI1
aI0
aa(lp213
I3
aI3
aI5
aI-7
aI1
aI0
aI1
aI2
aa(lp214
I5
aI-7
aI1
aI0
aI1
aI2
aI2
aI5
aa(lp215
I1
aI0
aI1
aI2
aI2
aI5
aI5
aI0
aa(lp216
I1
aI2
aI2
aI5
aI5
aI0
aI5
aI-2
aa(lp217
I2
aI5
aI5
aI0
aI5
aI-2
aI4
aI0
aa(lp218
I5
aI0
aI5
aI-2
aI4
aI0
aI4
aI-1
aa(lp219
I5
aI-2
aI4
aI0
aI4
aI-1
aI3
aI0
aa(lp220
I4
aI0
aI4
aI-1
aI3
aI0
aI3
aI-2
aa(lp221
I4
aI-1
aI3
aI0
aI3
aI-2
aI2
aI-2
aa(lp222
I3
aI0
aI3
aI-2
aI2
aI-2
aI1
aI4
aa(lp223
I3
aI-2
aI2
aI-2
aI1
aI4
aI3
aI-4
aa(lp224
I2
aI-2
aI1
aI4
aI3
aI-4
aI1
aI4
aa(lp225
I1
aI4
aI3
aI-4
aI1
aI4
aI3
aI-4
aa(lp226
I3
aI-4
aI1
aI4
aI3
aI-4
aI1
aI2
aa(lp227
I1
aI4
aI3
aI-4
aI1
aI2
aI2
aI5
aa(lp228
I3
aI-4
aI1
aI2
aI2
aI5
aI5
aI0
aa(lp229
I1
aI2
aI2
aI5
aI5
aI0
aI4
aI0
aa(lp230
I2
aI5
aI5
aI0
aI4
aI0
aI3
aI0
aa(lp231
I5
aI0
aI4
aI0
aI3
aI0
aI5
aI-2
aa(lp232
I4
aI0
aI3
aI0
aI5
aI-2
aI4
aI-1
aa(lp233
I3
aI0
aI5
aI-2
aI4
aI-1
aI3
aI-2
aa(lp234
I5
aI-2
aI4
aI-1
aI3
aI-2
aI2
aI2
aa(lp235
I4
aI-1
aI3
aI-2
aI2
aI2
aI3
aI3
aa(lp236
I3
aI-2
aI2
aI2
aI3
aI3
aI5
aI-7
aa(lp237
I2
aI2
aI3
aI3
aI5
aI-7
aI1
aI0
aa(lp238
I3
aI3
aI5
aI-7
aI1
aI0
aI1
aI0
aa(lp239
I5
aI-7
aI1
aI0
aI1
aI0
aI1
aI2
aa(lp240
I1
aI0
aI1
aI0
aI1
aI2
aI2
aI2
aa(lp241
I1
aI0
aI1
aI2
aI2
aI2
aI3
aI-4
aa(lp242
I5
aI0
aI4
aI0
aI3
aI0
aI5
aI-2
aa(lp243
I4
aI0
aI3
aI0
aI5
aI-2
aI4
aI-1
aa(lp244
I3
aI0
aI5
aI-2
aI4
aI-1
aI3
aI-2
aa(lp245
I5
aI-2
aI4
aI-1
aI3
aI-2
aI2
aI2
aa(lp246
I4
aI-1
aI3
aI-2
aI2
aI2
aI3
aI3
aa(lp247
I3
aI-2
aI2
aI2
aI3
aI3
aI5
aI-3
aa(lp248
I2
aI2
aI3
aI3
aI5
aI-3
aI3
aI3
aa(lp249
I3
aI3
aI5
aI-3
aI3
aI3
aI5
aI-7
aa(lp250
I5
aI-3
aI3
aI3
aI5
aI-7
aI1
aI0
aa(lp251
I3
aI3
aI5
aI-7
aI1
aI0
aI1
aI2
aa(lp252
I5
aI-7
aI1
aI0
aI1
aI2
aI2
aI-2
aa(lp253
I1
aI0
aI1
aI2
aI2
aI-2
aI1
aI2
aa(lp254
I1
aI2
aI2
aI-2
aI1
aI2
aI2
aI2
aa(lp255
I2
aI-2
aI1
aI2
aI2
aI2
aI3
aI1
aa(lp256
I1
aI2
aI2
aI2
aI3
aI1
aI4
aI-1
aa(lp257
I2
aI2
aI3
aI1
aI4
aI-1
aI3
aI1
aa(lp258
I3
aI1
aI4
aI-1
aI3
aI1
aI4
aI2
aa(lp259
I4
aI-1
aI3
aI1
aI4
aI2
aI5
aI0
aa(lp260
I3
aI1
aI4
aI2
aI5
aI0
aI4
aI0
aa(lp261
I4
aI2
aI5
aI0
aI4
aI0
aI3
aI0
aa(lp262
I5
aI0
aI4
aI0
aI3
aI0
aI4
aI-3
aa(lp263
I4
aI0
aI3
aI0
aI4
aI-3
aI3
aI3
aa(lp264
I3
aI0
aI4
aI-3
aI3
aI3
aI5
aI-3
aa(lp265
I4
aI-3
aI3
aI3
aI5
aI-3
aI3
aI-4
aa(lp266
I3
aI3
aI5
aI-3
aI3
aI-4
aI1
aI7
aa(lp267
I5
aI-3
aI3
aI-4
aI1
aI7
aI5
aI0
aa(lp268
I3
aI-4
aI1
aI7
aI5
aI0
aI4
aI0
aa(lp269
I1
aI7
aI5
aI0
aI4
aI0
aI3
aI0
aa(lp270
I5
aI0
aI4
aI0
aI3
aI0
aI4
aI-2
aa(lp271
I4
aI0
aI3
aI0
aI4
aI-2
aI3
aI2
aa(lp272
I3
aI0
aI4
aI-2
aI3
aI2
aI4
aI-2
aa(lp273
I4
aI-2
aI3
aI2
aI4
aI-2
aI3
aI-3
aa(lp274
I3
aI2
aI4
aI-2
aI3
aI-3
aI2
aI-2
aa(lp275
I4
aI-2
aI3
aI-3
aI2
aI-2
aI1
aI4
aa(lp276
I3
aI-3
aI2
aI-2
aI1
aI4
aI3
aI-4
aa(lp277
I2
aI-2
aI1
aI4
aI3
aI-4
aI1
aI4
aa(lp278
I1
aI4
aI3
aI-4
aI1
aI4
aI3
aI-4
aa(lp279
I1
aI0
aI3
aI0
aI2
aI0
aI1
aI5
aa(lp280
I3
aI0
aI2
aI0
aI1
aI5
aI3
aI-1
aa(lp281
I2
aI0
aI1
aI5
aI3
aI-1
aI2
aI1
aa(lp282
I1
aI5
aI3
aI-1
aI2
aI1
aI3
aI2
aa(lp283
I3
aI-1
aI2
aI1
aI3
aI2
aI4
aI2
aa(lp284
I2
aI1
aI3
aI2
aI4
aI2
aI5
aI-9
aa(lp285
I3
aI2
aI4
aI2
aI5
aI-9
aI1
aI0
aa(lp286
I4
aI2
aI5
aI-9
aI1
aI0
aI3
aI0
aa(lp287
I5
aI-9
aI1
aI0
aI3
aI0
aI2
aI0
aa(lp288
I1
aI0
aI3
aI0
aI2
aI0
aI1
aI7
aa(lp289
I3
aI0
aI2
aI0
aI1
aI7
aI3
aI-1
aa(lp290
I2
aI0
aI1
aI7
aI3
aI-1
aI2
aI1
aa(lp291
I1
aI7
aI3
aI-1
aI2
aI1
aI3
aI2
aa(lp292
I3
aI-1
aI2
aI1
aI3
aI2
aI4
aI1
aa(lp293
I2
aI1
aI3
aI2
aI4
aI1
aI5
aI0
aa(lp294
I3
aI2
aI4
aI1
aI5
aI0
aI5
aI-1
aa(lp295
I4
aI1
aI5
aI0
aI5
aI-1
aI3
aI3
aa(lp296
I5
aI0
aI5
aI-1
aI3
aI3
aI5
aI-2
aa(lp297
I5
aI-1
aI3
aI3
aI5
aI-2
aI4
aI-1
aa(lp298
I3
aI3
aI5
aI-2
aI4
aI-1
aI3
aI-2
aa(lp299
I5
aI-2
aI4
aI-1
aI3
aI-2
aI2
aI-2
aa(lp300
I4
aI-1
aI3
aI-2
aI2
aI-2
aI1
aI0
aa(lp301
I3
aI-2
aI2
aI-2
aI1
aI0
aI3
aI-1
aa(lp302
I2
aI-2
aI1
aI0
aI3
aI-1
aI2
aI1
aa(lp303
I1
aI0
aI3
aI-1
aI2
aI1
aI3
aI4
aa(lp304
I3
aI-1
aI2
aI1
aI3
aI4
aI5
aI-2
aa(lp305
I2
aI1
aI3
aI4
aI5
aI-2
aI4
aI0
aa(lp306
I3
aI4
aI5
aI-2
aI4
aI0
aI5
aI-2
aa(lp307
I5
aI-2
aI4
aI0
aI5
aI-2
aI4
aI-1
aa(lp308
I4
aI0
aI5
aI-2
aI4
aI-1
aI3
aI-2
aa(lp309
I5
aI-2
aI4
aI-1
aI3
aI-2
aI2
aI-2
aa(lp310
I4
aI-1
aI3
aI-2
aI2
aI-2
aI1
aI0
aa(lp311
I3
aI-2
aI2
aI-2
aI1
aI0
aI3
aI-1
aa(lp312
I2
aI-2
aI1
aI0
aI3
aI-1
aI2
aI1
aa(lp313
I1
aI0
aI3
aI-1
aI2
aI1
aI1
aI4
aa(lp314
I3
aI-1
aI2
aI1
aI1
aI4
aI3
aI-2
aa(lp315
I2
aI1
aI1
aI4
aI3
aI-2
aI2
aI3
aa(lp316
I1
aI4
aI3
aI-2
aI2
aI3
aI4
aI2
aa(lp317
I3
aI-2
aI2
aI3
aI4
aI2
aI5
aI-2
aa(lp318
I2
aI3
aI4
aI2
aI5
aI-2
aI4
aI-1
aa(lp319
I4
aI2
aI5
aI-2
aI4
aI-1
aI3
aI-2
aa(lp320
I5
aI-2
aI4
aI-1
aI3
aI-2
aI2
aI-2
aa(lp321
I4
aI-1
aI3
aI-2
aI2
aI-2
aI1
aI-1
aa(lp322
I3
aI-2
aI2
aI-2
aI1
aI-1
aI4
aI-2
aa(lp323
I2
aI-2
aI1
aI-1
aI4
aI-2
aI3
aI-2
aa(lp324
I1
aI-1
aI4
aI-2
aI3
aI-2
aI2
aI-2
aa(lp325
I4
aI-2
aI3
aI-2
aI2
aI-2
aI1
aI-1
aa(lp326
I3
aI-2
aI2
aI-2
aI1
aI-1
aI3
aI-2
aa(lp327
I2
aI-2
aI1
aI-1
aI3
aI-2
aI2
aI-2
aa(lp328
I1
aI-1
aI3
aI-2
aI2
aI-2
aI1
aI7
aa(lp329
I3
aI-2
aI2
aI-2
aI1
aI7
aI5
aI-2
aa(lp330
I2
aI-2
aI1
aI7
aI5
aI-2
aI4
aI-1
aa(lp331
I1
aI7
aI5
aI-2
aI4
aI-1
aI3
aI-2
aa(lp332
I5
aI-2
aI4
aI-1
aI3
aI-2
aI2
aI-2
aa(lp333
I4
aI-1
aI3
aI-2
aI2
aI-2
aI1
aI7
aa(lp334
I3
aI-2
aI2
aI-2
aI1
aI7
aI4
aI0
aa(lp335
I2
aI-2
aI1
aI7
aI4
aI0
aI3
aI0
aa(lp336
I1
aI7
aI4
aI0
aI3
aI0
aI2
aI0
aa(lp337
I4
aI0
aI3
aI0
aI2
aI0
aI1
aI2
aa(lp338
I3
aI0
aI2
aI0
aI1
aI2
aI3
aI-2
aa(lp339
I2
aI0
aI1
aI2
aI3
aI-2
aI2
aI2
aa(lp340
I1
aI2
aI3
aI-2
aI2
aI2
aI3
aI1
aa(lp341
I3
aI-2
aI2
aI2
aI3
aI1
aI4
aI2
aa(lp342
I2
aI2
aI3
aI1
aI4
aI2
aI5
aI-2
aa(lp343
I3
aI1
aI4
aI2
aI5
aI-2
aI4
aI-1
aa(lp344
I4
aI2
aI5
aI-2
aI4
aI-1
aI3
aI-2
aa(lp345
I5
aI-2
aI4
aI-1
aI3
aI-2
aI2
aI-2
aa(lp346
I4
aI-1
aI3
aI-2
aI2
aI-2
aI1
aI4
aa(lp347
I3
aI-2
aI2
aI-2
aI1
aI4
aI3
aI-2
aa(lp348
I2
aI-2
aI1
aI4
aI3
aI-2
aI2
aI0
aa(lp349
I1
aI4
aI3
aI-2
aI2
aI0
aI3
aI0
aa(lp350
I3
aI-2
aI2
aI0
aI3
aI0
aI2
aI0
aa(lp351
I2
aI0
aI3
aI0
aI2
aI0
aI1
aI2
aa(lp352
I3
aI0
aI2
aI0
aI1
aI2
aI3
aI-2
aa(lp353
I2
aI0
aI1
aI2
aI3
aI-2
aI2
aI2
aa(lp354
I1
aI2
aI3
aI-2
aI2
aI2
aI3
aI1
aa(lp355
I3
aI-2
aI2
aI2
aI3
aI1
aI4
aI2
aa(lp356
I2
aI2
aI3
aI1
aI4
aI2
aI5
aI-2
aa(lp357
I3
aI1
aI4
aI2
aI5
aI-2
aI4
aI-1
aa(lp358
I4
aI2
aI5
aI-2
aI4
aI-1
aI3
aI-2
aa(lp359
I5
aI-2
aI4
aI-1
aI3
aI-2
aI2
aI-2
aa(lp360
I4
aI-1
aI3
aI-2
aI2
aI-2
aI1
aI7
aa(lp361
I3
aI-2
aI2
aI-2
aI1
aI7
aI2
aI3
aa(lp362
I2
aI-2
aI1
aI7
aI2
aI3
aI4
aI0
aa(lp363
I1
aI7
aI2
aI3
aI4
aI0
aI3
aI2
aa(lp364
I2
aI3
aI4
aI0
aI3
aI2
aI4
aI-2
aa(lp365
I4
aI0
aI3
aI2
aI4
aI-2
aI3
aI-1
aa(lp366
I3
aI2
aI4
aI-2
aI3
aI-1
aI2
aI-2
aa(lp367
I4
aI-2
aI3
aI-1
aI2
aI-2
aI1
aI5
aa(lp368
I3
aI-1
aI2
aI-2
aI1
aI5
aI3
aI2
aa(lp369
I2
aI-2
aI1
aI5
aI3
aI2
aI4
aI-2
aa(lp370
I1
aI5
aI3
aI2
aI4
aI-2
aI3
aI-2
aa(lp371
I3
aI2
aI4
aI-2
aI3
aI-2
aI2
aI-1
aa(lp372
I4
aI-2
aI3
aI-2
aI2
aI-1
aI1
aI12
aa(lp373
I3
aI-2
aI2
aI-1
aI1
aI12
aI3
aI1
aa(lp374
I2
aI-1
aI1
aI12
aI3
aI1
aI4
aI-1
aa(lp375
I1
aI12
aI3
aI1
aI4
aI-1
aI3
aI-2
aa(lp376
I3
aI1
aI4
aI-1
aI3
aI-2
aI2
aI-2
aa(lp377
I4
aI-1
aI3
aI-2
aI2
aI-2
aI1
aI0
aa(lp378
I3
aI-2
aI2
aI-2
aI1
aI0
aI1
aI4
aa(lp379
I2
aI-2
aI1
aI0
aI1
aI4
aI3
aI3
aa(lp380
I1
aI0
aI1
aI4
aI3
aI3
aI5
aI-3
aa(lp381
I1
aI4
aI3
aI3
aI5
aI-3
aI3
aI-2
aa(lp382
I3
aI3
aI5
aI-3
aI3
aI-2
aI2
aI2
aa(lp383
I5
aI-3
aI3
aI-2
aI2
aI2
aI5
aI-2
aa(lp384
I3
aI-2
aI2
aI2
aI5
aI-2
aI4
aI-2
aa(lp385
I2
aI2
aI5
aI-2
aI4
aI-2
aI3
aI-1
aa(lp386
I5
aI-2
aI4
aI-2
aI3
aI-1
aI2
aI-2
aa(lp387
I4
aI-2
aI3
aI-1
aI2
aI-2
aI1
aI-2
aa(lp388
I3
aI-1
aI2
aI-2
aI1
aI-2
aI4
aI-1
aa(lp389
I2
aI-2
aI1
aI-2
aI4
aI-1
aI3
aI-2
aa(lp390
I1
aI-2
aI4
aI-1
aI3
aI-2
aI2
aI-2
aa(lp391
I4
aI-1
aI3
aI-2
aI2
aI-2
aI1
aI-2
aa(lp392
I3
aI-2
aI2
aI-2
aI1
aI-2
aI4
aI-1
aa(lp393
I2
aI-2
aI1
aI-2
aI4
aI-1
aI3
aI-2
aa(lp394
I1
aI-2
aI4
aI-1
aI3
aI-2
aI2
aI-2
aa(lp395
I4
aI-1
aI3
aI-2
aI2
aI-2
aI1
aI0
aa(lp396
I3
aI-2
aI2
aI-2
aI1
aI0
aI1
aI4
aa(lp397
I2
aI-2
aI1
aI0
aI1
aI4
aI3
aI3
aa(lp398
I1
aI0
aI1
aI4
aI3
aI3
aI5
aI-3
aa(lp399
I1
aI4
aI3
aI3
aI5
aI-3
aI3
aI-4
aa(lp400
I1
aI1
aI3
aI1
aI1
aI1
aI2
aI1
aa(lp401
I3
aI1
aI1
aI1
aI2
aI1
aI3
aI1
aa(lp402
I1
aI1
aI2
aI1
aI3
aI1
aI1
aI1
aa(lp403
I2
aI1
aI3
aI1
aI1
aI1
aI3
aI1
aa(lp404
I3
aI1
aI1
aI1
aI3
aI1
aI1
aI1
aa(lp405
I1
aI1
aI3
aI1
aI1
aI1
aI2
aI1
aa(lp406
I3
aI1
aI1
aI1
aI2
aI1
aI3
aI1
aa(lp407
I1
aI1
aI2
aI1
aI3
aI1
aI1
aI1
aa(lp408
I2
aI1
aI3
aI1
aI1
aI1
aI3
aI1
aa(lp409
I3
aI1
aI1
aI1
aI3
aI1
aI1
aI1
aa(lp410
I1
aI1
aI3
aI1
aI1
aI1
aI2
aI1
aa(lp411
I3
aI1
aI1
aI1
aI2
aI1
aI3
aI3
aa(lp412
I1
aI1
aI2
aI1
aI3
aI3
aI5
aI-2
aa(lp413
I2
aI1
aI3
aI3
aI5
aI-2
aI4
aI-12
aa(lp414
I3
aI3
aI5
aI-2
aI4
aI-12
aI1
aI1
aa(lp415
I5
aI-2
aI4
aI-12
aI1
aI1
aI3
aI1
aa(lp416
I4
aI-12
aI1
aI1
aI3
aI1
aI1
aI1
aa(lp417
I1
aI1
aI3
aI1
aI1
aI1
aI3
aI1
aa(lp418
I3
aI1
aI1
aI1
aI3
aI1
aI1
aI1
aa(lp419
I1
aI1
aI3
aI1
aI1
aI1
aI3
aI1
aa(lp420
I3
aI1
aI1
aI1
aI3
aI1
aI1
aI1
aa(lp421
I1
aI1
aI3
aI1
aI1
aI1
aI2
aI1
aa(lp422
I3
aI1
aI1
aI1
aI2
aI1
aI3
aI1
aa(lp423
I1
aI1
aI2
aI1
aI3
aI1
aI1
aI1
aa(lp424
I2
aI1
aI3
aI1
aI1
aI1
aI3
aI1
aa(lp425
I3
aI1
aI1
aI1
aI3
aI1
aI1
aI1
aa(lp426
I1
aI1
aI3
aI1
aI1
aI1
aI2
aI2
aa(lp427
I3
aI1
aI1
aI1
aI2
aI2
aI1
aI1
aa(lp428
I1
aI1
aI2
aI2
aI1
aI1
aI2
aI2
aa(lp429
I2
aI2
aI1
aI1
aI2
aI2
aI4
aI-1
aa(lp430
I1
aI1
aI2
aI2
aI4
aI-1
aI3
aI-2
aa(lp431
I2
aI2
aI4
aI-1
aI3
aI-2
aI2
aI2
aa(lp432
I4
aI-1
aI3
aI-2
aI2
aI2
aI3
aI-2
aa(lp433
I3
aI-2
aI2
aI2
aI3
aI-2
aI2
aI2
aa(lp434
I2
aI2
aI3
aI-2
aI2
aI2
aI3
aI-2
aa(lp435
I3
aI-2
aI2
aI2
aI3
aI-2
aI2
aI5
aa(lp436
I2
aI2
aI3
aI-2
aI2
aI5
aI3
aI2
aa(lp437
I3
aI-2
aI2
aI5
aI3
aI2
aI4
aI-2
aa(lp438
I2
aI5
aI3
aI2
aI4
aI-2
aI3
aI2
aa(lp439
I3
aI2
aI4
aI-2
aI3
aI2
aI4
aI-2
aa(lp440
I4
aI-2
aI3
aI2
aI4
aI-2
aI3
aI-3
aa(lp441
I3
aI2
aI4
aI-2
aI3
aI-3
aI2
aI1
aa(lp442
I4
aI-2
aI3
aI-3
aI2
aI1
aI3
aI-1
aa(lp443
I3
aI-3
aI2
aI1
aI3
aI-1
aI2
aI1
aa(lp444
I2
aI1
aI3
aI-1
aI2
aI1
aI3
aI-1
aa(lp445
I3
aI-1
aI2
aI1
aI3
aI-1
aI2
aI-4
aa(lp446
I2
aI1
aI3
aI-1
aI2
aI-4
aI2
aI2
aa(lp447
I3
aI-1
aI2
aI-4
aI2
aI2
aI3
aI-2
aa(lp448
I2
aI-4
aI2
aI2
aI3
aI-2
aI2
aI2
aa(lp449
I2
aI2
aI3
aI-2
aI2
aI2
aI3
aI-2
aa(lp450
I3
aI-2
aI2
aI2
aI3
aI-2
aI2
aI2
aa(lp451
I2
aI2
aI3
aI-2
aI2
aI2
aI3
aI2
aa(lp452
I3
aI-2
aI2
aI2
aI3
aI2
aI4
aI-2
aa(lp453
I2
aI2
aI3
aI2
aI4
aI-2
aI3
aI2
aa(lp454
I3
aI2
aI4
aI-2
aI3
aI2
aI4
aI-2
aa(lp455
I4
aI-2
aI3
aI2
aI4
aI-2
aI3
aI-7
aa(lp456
I3
aI2
aI4
aI-2
aI3
aI-7
aI2
aI2
aa(lp457
I4
aI-2
aI3
aI-7
aI2
aI2
aI3
aI-2
aa(lp458
I3
aI-7
aI2
aI2
aI3
aI-2
aI2
aI2
aa(lp459
I2
aI2
aI3
aI-2
aI2
aI2
aI3
aI-2
aa(lp460
I3
aI-2
aI2
aI2
aI3
aI-2
aI2
aI5
aa(lp461
I2
aI2
aI3
aI-2
aI2
aI5
aI5
aI-5
aa(lp462
I3
aI-2
aI2
aI5
aI5
aI-5
aI3
aI-3
aa(lp463
I2
aI5
aI5
aI-5
aI3
aI-3
aI2
aI-4
aa(lp464
I5
aI-5
aI3
aI-3
aI2
aI-4
aI1
aI12
aa(lp465
I3
aI-3
aI2
aI-4
aI1
aI12
aI4
aI-1
aa(lp466
I2
aI-4
aI1
aI12
aI4
aI-1
aI3
aI-1
aa(lp467
I1
aI12
aI4
aI-1
aI3
aI-1
aI2
aI-1
aa(lp468
I4
aI-1
aI3
aI-1
aI2
aI-1
aI1
aI-1
aa(lp469
I3
aI-1
aI2
aI-1
aI1
aI-1
aI3
aI-1
aa(lp470
I2
aI-1
aI1
aI-1
aI3
aI-1
aI1
aI-1
aa(lp471
I1
aI-1
aI3
aI-1
aI1
aI-1
aI3
aI-1
aa(lp472
I3
aI-1
aI1
aI-1
aI3
aI-1
aI2
aI-1
aa(lp473
I1
aI-1
aI3
aI-1
aI2
aI-1
aI1
aI-1
aa(lp474
I3
aI-1
aI2
aI-1
aI1
aI-1
aI3
aI-1
aa(lp475
I2
aI-1
aI1
aI-1
aI3
aI-1
aI1
aI-1
aa(lp476
I1
aI-1
aI3
aI-1
aI1
aI-1
aI2
aI-1
aa(lp477
I3
aI-1
aI1
aI-1
aI2
aI-1
aI1
aI2
aa(lp478
I1
aI-1
aI2
aI-1
aI1
aI2
aI2
aI2
aa(lp479
I2
aI-1
aI1
aI2
aI2
aI2
aI3
aI1
aa(lp480
I1
aI2
aI2
aI2
aI3
aI1
aI1
aI2
aa(lp481
I2
aI2
aI3
aI1
aI1
aI2
aI2
aI2
aa(lp482
I3
aI1
aI1
aI2
aI2
aI2
aI3
aI1
aa(lp483
I1
aI2
aI2
aI2
aI3
aI1
aI4
aI-1
aa(lp484
I2
aI2
aI3
aI1
aI4
aI-1
aI3
aI-1
aa(lp485
I3
aI1
aI4
aI-1
aI3
aI-1
aI2
aI-1
aa(lp486
I4
aI-1
aI3
aI-1
aI2
aI-1
aI1
aI-1
aa(lp487
I3
aI-1
aI2
aI-1
aI1
aI-1
aI3
aI-1
aa(lp488
I2
aI-1
aI1
aI-1
aI3
aI-1
aI2
aI-1
aa(lp489
I1
aI-1
aI3
aI-1
aI2
aI-1
aI1
aI-1
aa(lp490
I3
aI-1
aI2
aI-1
aI1
aI-1
aI3
aI-1
aa(lp491
I2
aI-1
aI1
aI-1
aI3
aI-1
aI1
aI-1
aa(lp492
I1
aI-1
aI3
aI-1
aI1
aI-1
aI3
aI-1
aa(lp493
I3
aI-1
aI1
aI-1
aI3
aI-1
aI1
aI-1
aa(lp494
I1
aI-1
aI3
aI-1
aI1
aI-1
aI2
aI-1
aa(lp495
I3
aI-1
aI1
aI-1
aI2
aI-1
aI1
aI2
aa(lp496
I1
aI-1
aI2
aI-1
aI1
aI2
aI2
aI2
aa(lp497
I2
aI-1
aI1
aI2
aI2
aI2
aI3
aI2
aa(lp498
I1
aI2
aI2
aI2
aI3
aI2
aI1
aI1
aa(lp499
I2
aI2
aI3
aI2
aI1
aI1
aI2
aI2
aa(lp500
I3
aI2
aI1
aI1
aI2
aI2
aI3
aI2
aa(lp501
I1
aI1
aI2
aI2
aI3
aI2
aI4
aI-1
aa(lp502
I2
aI2
aI3
aI2
aI4
aI-1
aI2
aI1
aa(lp503
I3
aI2
aI4
aI-1
aI2
aI1
aI3
aI-1
aa(lp504
I4
aI-1
aI2
aI1
aI3
aI-1
aI2
aI1
aa(lp505
I2
aI1
aI3
aI-1
aI2
aI1
aI3
aI3
aa(lp506
I3
aI-1
aI2
aI1
aI3
aI3
aI5
aI-1
aa(lp507
I2
aI1
aI3
aI3
aI5
aI-1
aI3
aI1
aa(lp508
I3
aI3
aI5
aI-1
aI3
aI1
aI4
aI-1
aa(lp509
I5
aI-1
aI3
aI1
aI4
aI-1
aI3
aI1
aa(lp510
I3
aI1
aI4
aI-1
aI3
aI1
aI4
aI-5
aa(lp511
I4
aI-1
aI3
aI1
aI4
aI-5
aI1
aI-1
aa(lp512
I3
aI1
aI4
aI-5
aI1
aI-1
aI2
aI1
aa(lp513
I4
aI-5
aI1
aI-1
aI2
aI1
aI3
aI-1
aa(lp514
I1
aI-1
aI2
aI1
aI3
aI-1
aI2
aI1
aa(lp515
I2
aI1
aI3
aI-1
aI2
aI1
aI3
aI3
aa(lp516
I3
aI-1
aI2
aI1
aI3
aI3
aI5
aI-1
aa(lp517
I2
aI1
aI3
aI3
aI5
aI-1
aI4
aI1
aa(lp518
I3
aI3
aI5
aI-1
aI4
aI1
aI5
aI-1
aa(lp519
I5
aI-1
aI4
aI1
aI5
aI-1
aI4
aI1
aa(lp520
I4
aI1
aI5
aI-1
aI4
aI1
aI5
aI-6
aa(lp521
I5
aI-1
aI4
aI1
aI5
aI-6
aI1
aI-1
aa(lp522
I4
aI1
aI5
aI-6
aI1
aI-1
aI2
aI1
aa(lp523
I5
aI-6
aI1
aI-1
aI2
aI1
aI3
aI-1
aa(lp524
I1
aI-1
aI2
aI1
aI3
aI-1
aI2
aI1
aa(lp525
I2
aI1
aI3
aI-1
aI2
aI1
aI3
aI3
aa(lp526
I3
aI-1
aI2
aI1
aI3
aI3
aI5
aI-1
aa(lp527
I2
aI1
aI3
aI3
aI5
aI-1
aI4
aI1
aa(lp528
I3
aI3
aI5
aI-1
aI4
aI1
aI5
aI-1
aa(lp529
I5
aI-1
aI4
aI1
aI5
aI-1
aI4
aI1
aa(lp530
I4
aI1
aI5
aI-1
aI4
aI1
aI5
aI-2
aa(lp531
I5
aI-1
aI4
aI1
aI5
aI-2
aI3
aI2
aa(lp532
I4
aI1
aI5
aI-2
aI3
aI2
aI4
aI-2
aa(lp533
I5
aI-2
aI3
aI2
aI4
aI-2
aI3
aI-2
aa(lp534
I3
aI2
aI4
aI-2
aI3
aI-2
aI2
aI-1
aa(lp535
I4
aI-2
aI3
aI-2
aI2
aI-1
aI1
aI-2
aa(lp536
I3
aI-2
aI2
aI-1
aI1
aI-2
aI2
aI2
aa(lp537
I2
aI-1
aI1
aI-2
aI2
aI2
aI1
aI1
aa(lp538
I1
aI-2
aI2
aI2
aI1
aI1
aI3
aI1
aa(lp539
I2
aI2
aI1
aI1
aI3
aI1
aI1
aI1
aa(lp540
I1
aI1
aI3
aI1
aI1
aI1
aI2
aI1
aa(lp541
I3
aI1
aI1
aI1
aI2
aI1
aI3
aI1
aa(lp542
I1
aI1
aI2
aI1
aI3
aI1
aI1
aI1
aa(lp543
I2
aI1
aI3
aI1
aI1
aI1
aI3
aI1
aa(lp544
I3
aI1
aI1
aI1
aI3
aI1
aI1
aI1
aa(lp545
I1
aI1
aI3
aI1
aI1
aI1
aI2
aI1
aa(lp546
I3
aI1
aI1
aI1
aI2
aI1
aI3
aI1
aa(lp547
I1
aI1
aI2
aI1
aI3
aI1
aI1
aI1
aa(lp548
I2
aI1
aI3
aI1
aI1
aI1
aI3
aI1
aa(lp549
I3
aI1
aI1
aI1
aI3
aI1
aI1
aI1
aa(lp550
I1
aI1
aI3
aI1
aI1
aI1
aI2
aI1
aa(lp551
I3
aI1
aI1
aI1
aI2
aI1
aI3
aI3
aa(lp552
I1
aI1
aI2
aI1
aI3
aI3
aI5
aI-2
aa(lp553
I2
aI1
aI3
aI3
aI5
aI-2
aI4
aI-12
aa(lp554
I3
aI3
aI5
aI-2
aI4
aI-12
aI1
aI1
aa(lp555
I5
aI-2
aI4
aI-12
aI1
aI1
aI3
aI1
aa(lp556
I4
aI-12
aI1
aI1
aI3
aI1
aI1
aI1
aa(lp557
I1
aI1
aI3
aI1
aI1
aI1
aI3
aI1
aa(lp558
I3
aI1
aI1
aI1
aI3
aI1
aI1
aI1
aa(lp559
I1
aI1
aI3
aI1
aI1
aI1
aI3
aI1
aa(lp560
I3
aI1
aI1
aI1
aI3
aI1
aI1
aI1
aa(lp561
I1
aI1
aI3
aI1
aI1
aI1
aI2
aI1
aa(lp562
I3
aI1
aI1
aI1
aI2
aI1
aI3
aI1
aa(lp563
I1
aI1
aI2
aI1
aI3
aI1
aI1
aI1
aa(lp564
I2
aI1
aI3
aI1
aI1
aI1
aI3
aI1
aa(lp565
I3
aI1
aI1
aI1
aI3
aI1
aI1
aI1
aa(lp566
I1
aI1
aI3
aI1
aI1
aI1
aI2
aI2
aa(lp567
I3
aI1
aI1
aI1
aI2
aI2
aI1
aI1
aa(lp568
I1
aI1
aI2
aI2
aI1
aI1
aI2
aI2
aa(lp569
I2
aI2
aI1
aI1
aI2
aI2
aI4
aI-1
aa(lp570
I1
aI1
aI2
aI2
aI4
aI-1
aI3
aI-2
aa(lp571
I2
aI2
aI4
aI-1
aI3
aI-2
aI2
aI2
aa(lp572
I4
aI-1
aI3
aI-2
aI2
aI2
aI3
aI-2
aa(lp573
I3
aI-2
aI2
aI2
aI3
aI-2
aI2
aI2
aa(lp574
I2
aI2
aI3
aI-2
aI2
aI2
aI3
aI-2
aa(lp575
I3
aI-2
aI2
aI2
aI3
aI-2
aI2
aI5
aa(lp576
I2
aI2
aI3
aI-2
aI2
aI5
aI3
aI2
aa(lp577
I3
aI-2
aI2
aI5
aI3
aI2
aI4
aI-2
aa(lp578
I2
aI5
aI3
aI2
aI4
aI-2
aI3
aI2
aa(lp579
I3
aI2
aI4
aI-2
aI3
aI2
aI4
aI-2
aa(lp580
I4
aI-2
aI3
aI2
aI4
aI-2
aI3
aI-3
aa(lp581
I3
aI2
aI4
aI-2
aI3
aI-3
aI2
aI1
aa(lp582
I4
aI-2
aI3
aI-3
aI2
aI1
aI3
aI-1
aa(lp583
I3
aI-3
aI2
aI1
aI3
aI-1
aI2
aI1
aa(lp584
I2
aI1
aI3
aI-1
aI2
aI1
aI3
aI-1
aa(lp585
I3
aI-1
aI2
aI1
aI3
aI-1
aI2
aI-4
aa(lp586
I2
aI1
aI3
aI-1
aI2
aI-4
aI2
aI2
aa(lp587
I3
aI-1
aI2
aI-4
aI2
aI2
aI3
aI-2
aa(lp588
I2
aI-4
aI2
aI2
aI3
aI-2
aI2
aI2
aa(lp589
I2
aI2
aI3
aI-2
aI2
aI2
aI3
aI-2
aa(lp590
I3
aI-2
aI2
aI2
aI3
aI-2
aI2
aI2
aa(lp591
I2
aI2
aI3
aI-2
aI2
aI2
aI3
aI2
aa(lp592
I3
aI-2
aI2
aI2
aI3
aI2
aI4
aI-2
aa(lp593
I2
aI2
aI3
aI2
aI4
aI-2
aI3
aI2
aa(lp594
I3
aI2
aI4
aI-2
aI3
aI2
aI4
aI-2
aa(lp595
I4
aI-2
aI3
aI2
aI4
aI-2
aI3
aI-7
aa(lp596
I3
aI2
aI4
aI-2
aI3
aI-7
aI2
aI2
aa(lp597
I4
aI-2
aI3
aI-7
aI2
aI2
aI3
aI-2
aa(lp598
I3
aI-7
aI2
aI2
aI3
aI-2
aI2
aI2
aa(lp599
I2
aI2
aI3
aI-2
aI2
aI2
aI3
aI-2
aa(lp600
I3
aI-2
aI2
aI2
aI3
aI-2
aI2
aI5
aa(lp601
I2
aI2
aI3
aI-2
aI2
aI5
aI5
aI-5
aa(lp602
I3
aI-2
aI2
aI5
aI5
aI-5
aI3
aI-3
aa(lp603
I2
aI5
aI5
aI-5
aI3
aI-3
aI2
aI-4
aa(lp604
I1
aI5
aI3
aI-5
aI1
aI9
aI5
aI-2
aa(lp605
I3
aI-5
aI1
aI9
aI5
aI-2
aI4
aI-2
aa(lp606
I1
aI9
aI5
aI-2
aI4
aI-2
aI3
aI2
aa(lp607
I5
aI-2
aI4
aI-2
aI3
aI2
aI4
aI-2
aa(lp608
I4
aI-2
aI3
aI2
aI4
aI-2
aI3
aI-1
aa(lp609
I3
aI2
aI4
aI-2
aI3
aI-1
aI2
aI1
aa(lp610
I4
aI-2
aI3
aI-1
aI2
aI1
aI3
aI2
aa(lp611
I3
aI-1
aI2
aI1
aI3
aI2
aI4
aI-7
aa(lp612
I2
aI1
aI3
aI2
aI4
aI-7
aI1
aI10
aa(lp613
I3
aI2
aI4
aI-7
aI1
aI10
aI5
aI-1
aa(lp614
I4
aI-7
aI1
aI10
aI5
aI-1
aI4
aI-2
aa(lp615
I1
aI10
aI5
aI-1
aI4
aI-2
aI3
aI2
aa(lp616
I5
aI-1
aI4
aI-2
aI3
aI2
aI4
aI-2
aa(lp617
I4
aI-2
aI3
aI2
aI4
aI-2
aI3
aI-1
aa(lp618
I3
aI2
aI4
aI-2
aI3
aI-1
aI2
aI1
aa(lp619
I4
aI-2
aI3
aI-1
aI2
aI1
aI3
aI2
aa(lp620
I3
aI-1
aI2
aI1
aI3
aI2
aI4
aI-9
aa(lp621
I2
aI1
aI3
aI2
aI4
aI-9
aI1
aI2
aa(lp622
I3
aI2
aI4
aI-9
aI1
aI2
aI2
aI2
aa(lp623
I4
aI-9
aI1
aI2
aI2
aI2
aI3
aI1
aa(lp624
I1
aI2
aI2
aI2
aI3
aI1
aI1
aI2
aa(lp625
I2
aI2
aI3
aI1
aI1
aI2
aI2
aI2
aa(lp626
I3
aI1
aI1
aI2
aI2
aI2
aI3
aI1
aa(lp627
I1
aI2
aI2
aI2
aI3
aI1
aI1
aI2
aa(lp628
I2
aI2
aI3
aI1
aI1
aI2
aI2
aI2
aa(lp629
I3
aI1
aI1
aI2
aI2
aI2
aI3
aI2
aa(lp630
I1
aI2
aI2
aI2
aI3
aI2
aI4
aI1
aa(lp631
I2
aI2
aI3
aI2
aI4
aI1
aI1
aI2
aa(lp632
I3
aI2
aI4
aI1
aI1
aI2
aI2
aI2
aa(lp633
I4
aI1
aI1
aI2
aI2
aI2
aI3
aI1
aa(lp634
I1
aI2
aI2
aI2
aI3
aI1
aI4
aI2
aa(lp635
I2
aI2
aI3
aI1
aI4
aI2
aI5
aI-2
aa(lp636
I3
aI1
aI4
aI2
aI5
aI-2
aI4
aI-3
aa(lp637
I4
aI2
aI5
aI-2
aI4
aI-3
aI2
aI-2
aa(lp638
I5
aI-2
aI4
aI-3
aI2
aI-2
aI1
aI-1
aa(lp639
I4
aI-3
aI2
aI-2
aI1
aI-1
aI2
aI1
aa(lp640
I2
aI-2
aI1
aI-1
aI2
aI1
aI3
aI-8
aa(lp641
I1
aI-1
aI2
aI1
aI3
aI-8
aI2
aI-2
aa(lp642
I2
aI1
aI3
aI-8
aI2
aI-2
aI1
aI5
aa(lp643
I3
aI-8
aI2
aI-2
aI1
aI5
aI2
aI4
aa(lp644
I2
aI-2
aI1
aI5
aI2
aI4
aI4
aI3
aa(lp645
I1
aI5
aI2
aI4
aI4
aI3
aI5
aI-2
aa(lp646
I2
aI4
aI4
aI3
aI5
aI-2
aI4
aI-10
aa(lp647
I4
aI3
aI5
aI-2
aI4
aI-10
aI1
aI-1
aa(lp648
I5
aI-2
aI4
aI-10
aI1
aI-1
aI2
aI1
aa(lp649
I4
aI-10
aI1
aI-1
aI2
aI1
aI3
aI-1
aa(lp650
I1
aI-1
aI2
aI1
aI3
aI-1
aI2
aI1
aa(lp651
I2
aI1
aI3
aI-1
aI2
aI1
aI1
aI4
aa(lp652
I3
aI-1
aI2
aI1
aI1
aI4
aI2
aI3
aa(lp653
I2
aI1
aI1
aI4
aI2
aI3
aI3
aI3
aa(lp654
I1
aI4
aI2
aI3
aI3
aI3
aI5
aI-1
aa(lp655
I2
aI3
aI3
aI3
aI5
aI-1
aI4
aI-12
aa(lp656
I3
aI3
aI5
aI-1
aI4
aI-12
aI1
aI-1
aa(lp657
I5
aI-1
aI4
aI-12
aI1
aI-1
aI2
aI1
aa(lp658
I4
aI-12
aI1
aI-1
aI2
aI1
aI3
aI-1
aa(lp659
I1
aI-1
aI2
aI1
aI3
aI-1
aI2
aI1
aa(lp660
I2
aI1
aI3
aI-1
aI2
aI1
aI1
aI2
aa(lp661
I3
aI-1
aI2
aI1
aI1
aI2
aI2
aI2
aa(lp662
I2
aI1
aI1
aI2
aI2
aI2
aI3
aI1
aa(lp663
I1
aI2
aI2
aI2
aI3
aI1
aI1
aI2
aa(lp664
I2
aI2
aI3
aI1
aI1
aI2
aI2
aI2
aa(lp665
I3
aI1
aI1
aI2
aI2
aI2
aI3
aI2
aa(lp666
I1
aI2
aI2
aI2
aI3
aI2
aI4
aI1
aa(lp667
I3
aI2
aI4
aI-2
aI3
aI-1
aI2
aI1
aa(lp668
I4
aI-2
aI3
aI-1
aI2
aI1
aI1
aI2
aa(lp669
I3
aI-1
aI2
aI1
aI1
aI2
aI2
aI2
aa(lp670
I2
aI1
aI1
aI2
aI2
aI2
aI3
aI1
aa(lp671
I1
aI2
aI2
aI2
aI3
aI1
aI4
aI-5
aa(lp672
I2
aI2
aI3
aI1
aI4
aI-5
aI1
aI9
aa(lp673
I3
aI1
aI4
aI-5
aI1
aI9
aI5
aI-2
aa(lp674
I4
aI-5
aI1
aI9
aI5
aI-2
aI4
aI-2
aa(lp675
I1
aI9
aI5
aI-2
aI4
aI-2
aI3
aI2
aa(lp676
I5
aI-2
aI4
aI-2
aI3
aI2
aI4
aI-2
aa(lp677
I4
aI-2
aI3
aI2
aI4
aI-2
aI3
aI-1
aa(lp678
I3
aI2
aI4
aI-2
aI3
aI-1
aI2
aI1
aa(lp679
I4
aI-2
aI3
aI-1
aI2
aI1
aI3
aI2
aa(lp680
I3
aI-1
aI2
aI1
aI3
aI2
aI4
aI-7
aa(lp681
I2
aI1
aI3
aI2
aI4
aI-7
aI1
aI10
aa(lp682
I3
aI2
aI4
aI-7
aI1
aI10
aI5
aI-1
aa(lp683
I4
aI-7
aI1
aI10
aI5
aI-1
aI4
aI-2
aa(lp684
I1
aI10
aI5
aI-1
aI4
aI-2
aI3
aI2
aa(lp685
I5
aI-1
aI4
aI-2
aI3
aI2
aI4
aI-2
aa(lp686
I4
aI-2
aI3
aI2
aI4
aI-2
aI3
aI-1
aa(lp687
I3
aI2
aI4
aI-2
aI3
aI-1
aI2
aI1
aa(lp688
I4
aI-2
aI3
aI-1
aI2
aI1
aI3
aI2
aa(lp689
I3
aI-1
aI2
aI1
aI3
aI2
aI4
aI-4
aa(lp690
I2
aI1
aI3
aI2
aI4
aI-4
aI1
aI2
aa(lp691
I3
aI2
aI4
aI-4
aI1
aI2
aI2
aI2
aa(lp692
I4
aI-4
aI1
aI2
aI2
aI2
aI3
aI1
aa(lp693
I1
aI2
aI2
aI2
aI3
aI1
aI1
aI2
aa(lp694
I2
aI2
aI3
aI1
aI1
aI2
aI2
aI2
aa(lp695
I3
aI1
aI1
aI2
aI2
aI2
aI3
aI2
aa(lp696
I1
aI2
aI2
aI2
aI3
aI2
aI4
aI1
aa(lp697
I2
aI2
aI3
aI2
aI4
aI1
aI5
aI-5
aa(lp698
I3
aI2
aI4
aI1
aI5
aI-5
aI3
aI-2
aa(lp699
I4
aI1
aI5
aI-5
aI3
aI-2
aI2
aI-1
aa(lp700
I5
aI-5
aI3
aI-2
aI2
aI-1
aI1
aI5
aa(lp701
I3
aI-2
aI2
aI-1
aI1
aI5
aI5
aI-4
aa(lp702
I2
aI-1
aI1
aI5
aI5
aI-4
aI3
aI-1
aa(lp703
I1
aI5
aI5
aI-4
aI3
aI-1
aI2
aI-2
aa(lp704
I5
aI-4
aI3
aI-1
aI2
aI-2
aI1
aI5
aa(lp705
I3
aI-1
aI2
aI-2
aI1
aI5
aI5
aI-3
aa(lp706
I2
aI-2
aI1
aI5
aI5
aI-3
aI3
aI-2
aa(lp707
I1
aI5
aI5
aI-3
aI3
aI-2
aI2
aI-2
aa(lp708
I5
aI-3
aI3
aI-2
aI2
aI-2
aI1
aI-1
aa(lp709
I3
aI-2
aI2
aI-2
aI1
aI-1
aI2
aI6
aa(lp710
I2
aI-2
aI1
aI-1
aI2
aI6
aI5
aI-3
aa(lp711
I1
aI-1
aI2
aI6
aI5
aI-3
aI3
aI-3
aa(lp712
I2
aI6
aI5
aI-3
aI3
aI-3
aI1
aI1
aa(lp713
I3
aI-5
aI1
aI5
aI3
aI-5
aI1
aI5
aa(lp714
I1
aI5
aI3
aI-5
aI1
aI5
aI3
aI-5
aa(lp715
I3
aI-5
aI1
aI5
aI3
aI-5
aI1
aI5
aa(lp716
I1
aI5
aI3
aI-5
aI1
aI5
aI3
aI4
aa(lp717
I3
aI-5
aI1
aI5
aI3
aI4
aI5
aI-2
aa(lp718
I1
aI5
aI3
aI4
aI5
aI-2
aI4
aI-3
aa(lp719
I3
aI4
aI5
aI-2
aI4
aI-3
aI2
aI-4
aa(lp720
I5
aI-2
aI4
aI-3
aI2
aI-4
aI1
aI4
aa(lp721
I4
aI-3
aI2
aI-4
aI1
aI4
aI2
aI3
aa(lp722
I2
aI-4
aI1
aI4
aI2
aI3
aI4
aI-7
aa(lp723
I1
aI4
aI2
aI3
aI4
aI-7
aI1
aI2
aa(lp724
I2
aI3
aI4
aI-7
aI1
aI2
aI2
aI2
aa(lp725
I4
aI-7
aI1
aI2
aI2
aI2
aI3
aI1
aa(lp726
I1
aI2
aI2
aI2
aI3
aI1
aI4
aI2
aa(lp727
I2
aI2
aI3
aI1
aI4
aI2
aI5
aI-7
aa(lp728
I3
aI1
aI4
aI2
aI5
aI-7
aI1
aI7
aa(lp729
I4
aI2
aI5
aI-7
aI1
aI7
aI5
aI-7
aa(lp730
I5
aI-7
aI1
aI7
aI5
aI-7
aI1
aI7
aa(lp731
I1
aI7
aI5
aI-7
aI1
aI7
aI5
aI-7
aa(lp732
I5
aI-7
aI1
aI7
aI5
aI-7
aI1
aI7
aa(lp733
I1
aI7
aI5
aI-7
aI1
aI7
aI3
aI3
aa(lp734
I5
aI-7
aI1
aI7
aI3
aI3
aI5
aI-1
aa(lp735
I1
aI7
aI3
aI3
aI5
aI-1
aI4
aI-4
aa(lp736
I3
aI3
aI5
aI-1
aI4
aI-4
aI2
aI-5
aa(lp737
I5
aI-1
aI4
aI-4
aI2
aI-5
aI1
aI5
aa(lp738
I4
aI-4
aI2
aI-5
aI1
aI5
aI2
aI4
aa(lp739
I2
aI-5
aI1
aI5
aI2
aI4
aI4
aI8
aa(lp740
I1
aI5
aI2
aI4
aI4
aI8
aI5
aI-1
aa(lp741
I2
aI4
aI4
aI8
aI5
aI-1
aI4
aI1
aa(lp742
I4
aI8
aI5
aI-1
aI4
aI1
aI5
aI-1
aa(lp743
I4
aI-2
aI3
aI2
aI4
aI-2
aI3
aI-2
aa(lp744
I3
aI2
aI4
aI-2
aI3
aI-2
aI3
aI-3
aa(lp745
I4
aI-2
aI3
aI-2
aI3
aI-3
aI1
aI7
aa(lp746
I3
aI-2
aI3
aI-3
aI1
aI7
aI4
aI-2
aa(lp747
I3
aI-3
aI1
aI7
aI4
aI-2
aI3
aI-3
aa(lp748
I1
aI7
aI4
aI-2
aI3
aI-3
aI2
aI-4
aa(lp749
I4
aI-2
aI3
aI-3
aI2
aI-4
aI1
aI9
aa(lp750
I3
aI-3
aI2
aI-4
aI1
aI9
aI4
aI-2
aa(lp751
I2
aI-4
aI1
aI9
aI4
aI-2
aI3
aI-5
aa(lp752
I1
aI9
aI4
aI-2
aI3
aI-5
aI1
aI-12
aa(lp753
I4
aI-2
aI3
aI-5
aI1
aI-12
aI5
aI-3
aa(lp754
I3
aI-5
aI1
aI-12
aI5
aI-3
aI3
aI3
aa(lp755
I1
aI-12
aI5
aI-3
aI3
aI3
aI5
aI-3
aa(lp756
I5
aI-3
aI3
aI3
aI5
aI-3
aI3
aI-4
aa(lp757
I3
aI3
aI5
aI-3
aI3
aI-4
aI1
aI12
aa(lp758
I5
aI-3
aI3
aI-4
aI1
aI12
aI1
aI0
aa(lp759
I3
aI-4
aI1
aI12
aI1
aI0
aI1
aI1
aa(lp760
I1
aI12
aI1
aI0
aI1
aI1
aI2
aI0
aa(lp761
I1
aI0
aI1
aI1
aI2
aI0
aI2
aI-1
aa(lp762
I1
aI1
aI2
aI0
aI2
aI-1
aI1
aI0
aa(lp763
I2
aI0
aI2
aI-1
aI1
aI0
aI1
aI-1
aa(lp764
I2
aI-1
aI1
aI0
aI1
aI-1
aI2
aI0
aa(lp765
I1
aI0
aI1
aI-1
aI2
aI0
aI2
aI1
aa(lp766
I1
aI-1
aI2
aI0
aI2
aI1
aI2
aI0
aa(lp767
I2
aI0
aI2
aI1
aI2
aI0
aI2
aI-5
aa(lp768
I2
aI1
aI2
aI0
aI2
aI-5
aI1
aI0
aa(lp769
I2
aI0
aI2
aI-5
aI1
aI0
aI1
aI-3
aa(lp770
I2
aI-5
aI1
aI0
aI1
aI-3
aI2
aI0
aa(lp771
I1
aI0
aI1
aI-3
aI2
aI0
aI2
aI-4
aa(lp772
I1
aI-3
aI2
aI0
aI2
aI-4
aI1
aI0
aa(lp773
I2
aI0
aI2
aI-4
aI1
aI0
aI1
aI5
aa(lp774
I2
aI-4
aI1
aI0
aI1
aI5
aI2
aI0
aa(lp775
I1
aI0
aI1
aI5
aI2
aI0
aI2
aI-5
aa(lp776
I1
aI5
aI2
aI0
aI2
aI-5
aI1
aI0
aa(lp777
I2
aI0
aI2
aI-5
aI1
aI0
aI1
aI5
aa(lp778
I2
aI-5
aI1
aI0
aI1
aI5
aI2
aI0
aa(lp779
I1
aI0
aI1
aI5
aI2
aI0
aI2
aI3
aa(lp780
I1
aI5
aI2
aI0
aI2
aI3
aI4
aI0
aa(lp781
I2
aI0
aI2
aI3
aI4
aI0
aI4
aI-1
aa(lp782
I2
aI3
aI4
aI0
aI4
aI-1
aI3
aI0
aa(lp783
I4
aI0
aI4
aI-1
aI3
aI0
aI3
aI-3
aa(lp784
I4
aI-1
aI3
aI0
aI3
aI-3
aI1
aI0
aa(lp785
I3
aI0
aI3
aI-3
aI1
aI0
aI1
aI-4
aa(lp786
I3
aI-3
aI1
aI0
aI1
aI-4
aI2
aI12
aa(lp787
I1
aI0
aI1
aI-4
aI2
aI12
aI5
aI-2
aa(lp788
I1
aI-4
aI2
aI12
aI5
aI-2
aI4
aI-1
aa(lp789
I2
aI12
aI5
aI-2
aI4
aI-1
aI3
aI-2
aa(lp790
I5
aI-2
aI4
aI-1
aI3
aI-2
aI2
aI-2
aa(lp791
I4
aI-1
aI3
aI-2
aI2
aI-2
aI1
aI2
aa(lp792
I3
aI-2
aI2
aI-2
aI1
aI2
aI2
aI2
aa(lp793
I2
aI-2
aI1
aI2
aI2
aI2
aI3
aI1
aa(lp794
I1
aI2
aI2
aI2
aI3
aI1
aI1
aI2
aa(lp795
I2
aI2
aI3
aI1
aI1
aI2
aI2
aI2
aa(lp796
I3
aI1
aI1
aI2
aI2
aI2
aI4
aI-2
aa(lp797
I1
aI2
aI2
aI2
aI4
aI-2
aI3
aI-2
aa(lp798
I2
aI2
aI4
aI-2
aI3
aI-2
aI2
aI-1
aa(lp799
I4
aI-2
aI3
aI-2
aI2
aI-1
aI1
aI-2
aa(lp800
I3
aI-2
aI2
aI-1
aI1
aI-2
aI2
aI2
aa(lp801
I2
aI-1
aI1
aI-2
aI2
aI2
aI1
aI1
aa(lp802
I1
aI-2
aI2
aI2
aI1
aI1
aI2
aI2
aa(lp803
I2
aI2
aI1
aI1
aI2
aI2
aI3
aI2
aa(lp804
I1
aI1
aI2
aI2
aI3
aI2
aI4
aI5
aa(lp805
I2
aI2
aI3
aI2
aI4
aI5
aI5
aI-2
aa(lp806
I3
aI2
aI4
aI5
aI5
aI-2
aI4
aI-1
aa(lp807
I4
aI5
aI5
aI-2
aI4
aI-1
aI3
aI-2
aa(lp808
I5
aI-2
aI4
aI-1
aI3
aI-2
aI2
aI-2
aa(lp809
I4
aI-1
aI3
aI-2
aI2
aI-2
aI1
aI2
aa(lp810
I3
aI-2
aI2
aI-2
aI1
aI2
aI5
aI-2
aa(lp811
I2
aI-2
aI1
aI2
aI5
aI-2
aI4
aI-2
aa(lp812
I1
aI2
aI5
aI-2
aI4
aI-2
aI3
aI-1
aa(lp813
I5
aI-2
aI4
aI-2
aI3
aI-1
aI2
aI-2
aa(lp814
I4
aI-2
aI3
aI-1
aI2
aI-2
aI1
aI5
aa(lp815
I3
aI-1
aI2
aI-2
aI1
aI5
aI5
aI-2
aa(lp816
I2
aI-2
aI1
aI5
aI5
aI-2
aI4
aI-1
aa(lp817
I1
aI5
aI5
aI-2
aI4
aI-1
aI3
aI-2
aa(lp818
I5
aI-2
aI4
aI-1
aI3
aI-2
aI2
aI-2
aa(lp819
I4
aI-1
aI3
aI-2
aI2
aI-2
aI1
aI-5
aa(lp820
I3
aI-2
aI2
aI-2
aI1
aI-5
aI4
aI-3
aa(lp821
I2
aI-2
aI1
aI-5
aI4
aI-3
aI2
aI3
aa(lp822
I1
aI-5
aI4
aI-3
aI2
aI3
aI4
aI-3
aa(lp823
I4
aI-3
aI2
aI3
aI4
aI-3
aI2
aI-4
aa(lp824
I1
aI2
aI2
aI2
aI3
aI1
aI1
aI2
aa(lp825
I2
aI2
aI3
aI1
aI1
aI2
aI2
aI2
aa(lp826
I3
aI1
aI1
aI2
aI2
aI2
aI3
aI2
aa(lp827
I1
aI2
aI2
aI2
aI3
aI2
aI4
aI1
aa(lp828
I2
aI2
aI3
aI2
aI4
aI1
aI1
aI2
aa(lp829
I3
aI2
aI4
aI1
aI1
aI2
aI2
aI2
aa(lp830
I4
aI1
aI1
aI2
aI2
aI2
aI3
aI1
aa(lp831
I1
aI2
aI2
aI2
aI3
aI1
aI1
aI2
aa(lp832
I2
aI2
aI3
aI1
aI1
aI2
aI2
aI2
aa(lp833
I3
aI1
aI1
aI2
aI2
aI2
aI3
aI2
aa(lp834
I1
aI2
aI2
aI2
aI3
aI2
aI4
aI1
aa(lp835
I2
aI2
aI3
aI2
aI4
aI1
aI5
aI-1
aa(lp836
I3
aI2
aI4
aI1
aI5
aI-1
aI4
aI-2
aa(lp837
I4
aI1
aI5
aI-1
aI4
aI-2
aI3
aI-2
aa(lp838
I5
aI-1
aI4
aI-2
aI3
aI-2
aI2
aI2
aa(lp839
I4
aI-2
aI3
aI-2
aI2
aI2
aI3
aI2
aa(lp840
I3
aI-2
aI2
aI2
aI3
aI2
aI1
aI1
aa(lp841
I2
aI2
aI3
aI2
aI1
aI1
aI2
aI2
aa(lp842
I3
aI2
aI1
aI1
aI2
aI2
aI3
aI2
aa(lp843
I1
aI1
aI2
aI2
aI3
aI2
aI4
aI1
aa(lp844
I2
aI2
aI3
aI2
aI4
aI1
aI5
aI9
aa(lp845
I3
aI2
aI4
aI1
aI5
aI9
aI5
aI-2
aa(lp846
I4
aI1
aI5
aI9
aI5
aI-2
aI4
aI-1
aa(lp847
I5
aI9
aI5
aI-2
aI4
aI-1
aI3
aI-2
aa(lp848
I5
aI-2
aI4
aI-1
aI3
aI-2
aI2
aI-2
aa(lp849
I4
aI-1
aI3
aI-2
aI2
aI-2
aI1
aI-1
aa(lp850
I3
aI-2
aI2
aI-2
aI1
aI-1
aI3
aI-2
aa(lp851
I2
aI-2
aI1
aI-1
aI3
aI-2
aI2
aI-2
aa(lp852
I1
aI-1
aI3
aI-2
aI2
aI-2
aI1
aI-2
aa(lp853
I3
aI-2
aI2
aI-2
aI1
aI-2
aI4
aI-1
aa(lp854
I2
aI-2
aI1
aI-2
aI4
aI-1
aI3
aI-2
aa(lp855
I1
aI-2
aI4
aI-1
aI3
aI-2
aI2
aI-2
aa(lp856
I4
aI-1
aI3
aI-2
aI2
aI-2
aI1
aI-2
aa(lp857
I3
aI-2
aI2
aI-2
aI1
aI-2
aI3
aI-1
aa(lp858
I2
aI-2
aI1
aI-2
aI3
aI-1
aI2
aI-2
aa(lp859
I1
aI-2
aI3
aI-1
aI2
aI-2
aI1
aI2
aa(lp860
I3
aI-1
aI2
aI-2
aI1
aI2
aI3
aI-2
aa(lp861
I2
aI-2
aI1
aI2
aI3
aI-2
aI2
aI2
aa(lp862
I1
aI2
aI3
aI-2
aI2
aI2
aI3
aI1
aa(lp863
I3
aI-2
aI2
aI2
aI3
aI1
aI4
aI2
aa(lp864
I2
aI2
aI3
aI1
aI4
aI2
aI5
aI-2
aa(lp865
I3
aI1
aI4
aI2
aI5
aI-2
aI4
aI-1
aa(lp866
I4
aI2
aI5
aI-2
aI4
aI-1
aI3
aI-2
aa(lp867
I5
aI-2
aI4
aI-1
aI3
aI-2
aI2
aI-2
aa(lp868
I4
aI-1
aI3
aI-2
aI2
aI-2
aI1
aI6
aa(lp869
I3
aI-2
aI2
aI-2
aI1
aI6
aI3
aI1
aa(lp870
I2
aI-2
aI1
aI6
aI3
aI1
aI4
aI-1
aa(lp871
I1
aI6
aI3
aI1
aI4
aI-1
aI3
aI-2
aa(lp872
I3
aI1
aI4
aI-1
aI3
aI-2
aI2
aI-2
aa(lp873
I4
aI-1
aI3
aI-2
aI2
aI-2
aI1
aI2
aa(lp874
I3
aI-2
aI2
aI-2
aI1
aI2
aI2
aI2
aa(lp875
I2
aI-2
aI1
aI2
aI2
aI2
aI3
aI1
aa(lp876
I1
aI2
aI2
aI2
aI3
aI1
aI4
aI2
aa(lp877
I2
aI2
aI3
aI1
aI4
aI2
aI5
aI2
aa(lp878
I3
aI1
aI4
aI2
aI5
aI2
aI3
aI1
aa(lp879
I4
aI2
aI5
aI2
aI3
aI1
aI4
aI-1
aa(lp880
I5
aI2
aI3
aI1
aI4
aI-1
aI3
aI-2
aa(lp881
I3
aI1
aI4
aI-1
aI3
aI-2
aI2
aI-2
aa(lp882
I4
aI-1
aI3
aI-2
aI2
aI-2
aI1
aI2
aa(lp883
I3
aI-2
aI2
aI-2
aI1
aI2
aI2
aI2
aa(lp884
I2
aI-2
aI1
aI2
aI2
aI2
aI3
aI1
aa(lp885
I1
aI2
aI2
aI2
aI3
aI1
aI4
aI2
aa(lp886
I2
aI2
aI3
aI1
aI4
aI2
aI5
aI-12
aa(lp887
I3
aI1
aI4
aI2
aI5
aI-12
aI1
aI9
aa(lp888
I4
aI2
aI5
aI-12
aI1
aI9
aI5
aI-4
aa(lp889
I5
aI-12
aI1
aI9
aI5
aI-4
aI4
aI-5
aa(lp890
I1
aI9
aI5
aI-4
aI4
aI-5
aI2
aI-3
aa(lp891
I5
aI-4
aI4
aI-5
aI2
aI-3
aI1
aI3
aa(lp892
I4
aI-5
aI2
aI-3
aI1
aI3
aI5
aI-2
aa(lp893
I2
aI-3
aI1
aI3
aI5
aI-2
aI4
aI-3
aa(lp894
I1
aI3
aI5
aI-2
aI4
aI-3
aI2
aI-2
aa(lp895
I1
aI2
aI2
aI2
aI3
aI2
aI1
aI1
aa(lp896
I2
aI2
aI3
aI2
aI1
aI1
aI2
aI2
aa(lp897
I3
aI2
aI1
aI1
aI2
aI2
aI3
aI2
aa(lp898
I1
aI1
aI2
aI2
aI3
aI2
aI4
aI1
aa(lp899
I2
aI2
aI3
aI2
aI4
aI1
aI5
aI-1
aa(lp900
I3
aI2
aI4
aI1
aI5
aI-1
aI4
aI-2
aa(lp901
I4
aI1
aI5
aI-1
aI4
aI-2
aI3
aI-2
aa(lp902
I5
aI-1
aI4
aI-2
aI3
aI-2
aI2
aI-1
aa(lp903
I4
aI-2
aI3
aI-2
aI2
aI-1
aI1
aI-2
aa(lp904
I3
aI-2
aI2
aI-1
aI1
aI-2
aI3
aI-2
aa(lp905
I2
aI-1
aI1
aI-2
aI3
aI-2
aI2
aI-2
aa(lp906
I1
aI-2
aI3
aI-2
aI2
aI-2
aI1
aI-1
aa(lp907
I3
aI-2
aI2
aI-2
aI1
aI-1
aI1
aI1
aa(lp908
I2
aI-2
aI1
aI-1
aI1
aI1
aI2
aI2
aa(lp909
I1
aI-1
aI1
aI1
aI2
aI2
aI3
aI2
aa(lp910
I1
aI1
aI2
aI2
aI3
aI2
aI1
aI2
aa(lp911
I2
aI2
aI3
aI2
aI1
aI2
aI2
aI1
aa(lp912
I3
aI2
aI1
aI2
aI2
aI1
aI3
aI2
aa(lp913
I1
aI2
aI2
aI1
aI3
aI2
aI4
aI2
aa(lp914
I2
aI1
aI3
aI2
aI4
aI2
aI5
aI-2
aa(lp915
I3
aI2
aI4
aI2
aI5
aI-2
aI4
aI-2
aa(lp916
I4
aI2
aI5
aI-2
aI4
aI-2
aI3
aI-1
aa(lp917
I5
aI-2
aI4
aI-2
aI3
aI-1
aI2
aI-2
aa(lp918
I4
aI-2
aI3
aI-1
aI2
aI-2
aI1
aI-2
aa(lp919
I3
aI-1
aI2
aI-2
aI1
aI-2
aI3
aI-2
aa(lp920
I2
aI-2
aI1
aI-2
aI3
aI-2
aI2
aI-1
aa(lp921
I1
aI-2
aI3
aI-2
aI2
aI-1
aI1
aI-2
aa(lp922
I3
aI-2
aI2
aI-1
aI1
aI-2
aI1
aI2
aa(lp923
I2
aI-1
aI1
aI-2
aI1
aI2
aI2
aI1
aa(lp924
I1
aI-2
aI1
aI2
aI2
aI1
aI3
aI2
aa(lp925
I1
aI2
aI2
aI1
aI3
aI2
aI1
aI2
aa(lp926
I2
aI1
aI3
aI2
aI1
aI2
aI2
aI2
aa(lp927
I3
aI2
aI1
aI2
aI2
aI2
aI3
aI1
aa(lp928
I1
aI2
aI2
aI2
aI3
aI1
aI4
aI2
aa(lp929
I2
aI2
aI3
aI1
aI4
aI2
aI5
aI-2
aa(lp930
I3
aI1
aI4
aI2
aI5
aI-2
aI4
aI-1
aa(lp931
I4
aI2
aI5
aI-2
aI4
aI-1
aI3
aI-2
aa(lp932
I5
aI-2
aI4
aI-1
aI3
aI-2
aI2
aI-2
aa(lp933
I4
aI-1
aI3
aI-2
aI2
aI-2
aI1
aI-2
aa(lp934
I3
aI-2
aI2
aI-2
aI1
aI-2
aI3
aI-1
aa(lp935
I2
aI-2
aI1
aI-2
aI3
aI-1
aI2
aI-2
aa(lp936
I1
aI-2
aI3
aI-1
aI2
aI-2
aI1
aI-2
aa(lp937
I3
aI-1
aI2
aI-2
aI1
aI-2
aI1
aI2
aa(lp938
I2
aI-2
aI1
aI-2
aI1
aI2
aI2
aI2
aa(lp939
I1
aI-2
aI1
aI2
aI2
aI2
aI3
aI1
aa(lp940
I1
aI2
aI2
aI2
aI3
aI1
aI1
aI2
aa(lp941
I2
aI2
aI3
aI1
aI1
aI2
aI2
aI2
aa(lp942
I3
aI1
aI1
aI2
aI2
aI2
aI3
aI2
aa(lp943
I1
aI2
aI2
aI2
aI3
aI2
aI4
aI1
aa(lp944
I2
aI2
aI3
aI2
aI4
aI1
aI5
aI-1
aa(lp945
I3
aI2
aI4
aI1
aI5
aI-1
aI4
aI-2
aa(lp946
I4
aI1
aI5
aI-1
aI4
aI-2
aI3
aI-2
aa(lp947
I5
aI-1
aI4
aI-2
aI3
aI-2
aI2
aI-2
aa(lp948
I4
aI-2
aI3
aI-2
aI2
aI-2
aI1
aI-1
aa(lp949
I3
aI-2
aI2
aI-2
aI1
aI-1
aI3
aI-2
aa(lp950
I2
aI-2
aI1
aI-1
aI3
aI-2
aI2
aI-2
aa(lp951
I1
aI1
aI2
aI2
aI3
aI2
aI1
aI2
aa(lp952
I2
aI2
aI3
aI2
aI1
aI2
aI2
aI1
aa(lp953
I3
aI2
aI1
aI2
aI2
aI1
aI3
aI2
aa(lp954
I1
aI2
aI2
aI1
aI3
aI2
aI4
aI2
aa(lp955
I2
aI1
aI3
aI2
aI4
aI2
aI5
aI-4
aa(lp956
I3
aI2
aI4
aI2
aI5
aI-4
aI4
aI-5
aa(lp957
I4
aI2
aI5
aI-4
aI4
aI-5
aI2
aI-3
aa(lp958
I5
aI-4
aI4
aI-5
aI2
aI-3
aI1
aI3
aa(lp959
I4
aI-5
aI2
aI-3
aI1
aI3
aI5
aI-2
aa(lp960
I2
aI-3
aI1
aI3
aI5
aI-2
aI4
aI-3
aa(lp961
I1
aI3
aI5
aI-2
aI4
aI-3
aI2
aI-3
aa(lp962
I5
aI-2
aI4
aI-3
aI2
aI-3
aI1
aI1
aa(lp963
I1
aI4
aI3
aI-2
aI2
aI-2
aI1
aI2
aa(lp964
I3
aI-2
aI2
aI-2
aI1
aI2
aI2
aI3
aa(lp965
I2
aI-2
aI1
aI2
aI2
aI3
aI4
aI-1
aa(lp966
I1
aI2
aI2
aI3
aI4
aI-1
aI3
aI-2
aa(lp967
I2
aI3
aI4
aI-1
aI3
aI-2
aI2
aI2
aa(lp968
I4
aI-1
aI3
aI-2
aI2
aI2
aI3
aI3
aa(lp969
I3
aI-2
aI2
aI2
aI3
aI3
aI5
aI-2
aa(lp970
I2
aI2
aI3
aI3
aI5
aI-2
aI4
aI-1
aa(lp971
I3
aI3
aI5
aI-2
aI4
aI-1
aI3
aI-2
aa(lp972
I5
aI-2
aI4
aI-1
aI3
aI-2
aI2
aI3
aa(lp973
I4
aI-1
aI3
aI-2
aI2
aI3
aI4
aI-1
aa(lp974
I3
aI-2
aI2
aI3
aI4
aI-1
aI3
aI-2
aa(lp975
I2
aI3
aI4
aI-1
aI3
aI-2
aI2
aI-2
aa(lp976
I4
aI-1
aI3
aI-2
aI2
aI-2
aI1
aI4
aa(lp977
I3
aI-2
aI2
aI-2
aI1
aI4
aI3
aI-2
aa(lp978
I2
aI-2
aI1
aI4
aI3
aI-2
aI2
aI-2
aa(lp979
I1
aI4
aI3
aI-2
aI2
aI-2
aI1
aI2
aa(lp980
I3
aI-2
aI2
aI-2
aI1
aI2
aI2
aI3
aa(lp981
I2
aI-2
aI1
aI2
aI2
aI3
aI4
aI-1
aa(lp982
I1
aI2
aI2
aI3
aI4
aI-1
aI3
aI-2
aa(lp983
I2
aI3
aI4
aI-1
aI3
aI-2
aI2
aI2
aa(lp984
I4
aI-1
aI3
aI-2
aI2
aI2
aI3
aI3
aa(lp985
I3
aI-2
aI2
aI2
aI3
aI3
aI5
aI-3
aa(lp986
I2
aI2
aI3
aI3
aI5
aI-3
aI3
aI-2
aa(lp987
I3
aI3
aI5
aI-3
aI3
aI-2
aI2
aI-2
aa(lp988
I5
aI-3
aI3
aI-2
aI2
aI-2
aI1
aI4
aa(lp989
I3
aI-2
aI2
aI-2
aI1
aI4
aI3
aI-2
aa(lp990
I2
aI-2
aI1
aI4
aI3
aI-2
aI2
aI-2
aa(lp991
I1
aI4
aI3
aI-2
aI2
aI-2
aI1
aI2
aa(lp992
I3
aI-2
aI2
aI-2
aI1
aI2
aI2
aI5
aa(lp993
I2
aI-2
aI1
aI2
aI2
aI5
aI5
aI-5
aa(lp994
I1
aI2
aI2
aI5
aI5
aI-5
aI2
aI5
aa(lp995
I2
aI5
aI5
aI-5
aI2
aI5
aI5
aI-3
aa(lp996
I5
aI-5
aI2
aI5
aI5
aI-3
aI3
aI3
aa(lp997
I2
aI5
aI5
aI-3
aI3
aI3
aI5
aI-3
aa(lp998
I5
aI-3
aI3
aI3
aI5
aI-3
aI3
aI3
aa(lp999
I3
aI3
aI5
aI-3
aI3
aI3
aI5
aI-2
aa(lp1000
I5
aI-3
aI3
aI3
aI5
aI-2
aI4
aI2
aa(lp1001
I3
aI3
aI5
aI-2
aI4
aI2
aI5
aI-2
aa(lp1002
I5
aI-2
aI4
aI2
aI5
aI-2
aI4
aI2
aa(lp1003
I4
aI2
aI5
aI-2
aI4
aI2
aI5
aI-5
aa(lp1004
I5
aI-2
aI4
aI2
aI5
aI-5
aI2
aI5
aa(lp1005
I4
aI2
aI5
aI-5
aI2
aI5
aI5
aI-5
aa(lp1006
I5
aI-5
aI2
aI5
aI5
aI-5
aI2
aI5
aa(lp1007
I2
aI5
aI5
aI-5
aI2
aI5
aI5
aI-3
aa(lp1008
I5
aI-5
aI2
aI5
aI5
aI-3
aI3
aI3
aa(lp1009
I2
aI5
aI5
aI-3
aI3
aI3
aI5
aI-3
aa(lp1010
I5
aI-3
aI3
aI3
aI5
aI-3
aI3
aI3
aa(lp1011
I3
aI3
aI5
aI-3
aI3
aI3
aI5
aI-3
aa(lp1012
I5
aI-3
aI3
aI3
aI5
aI-3
aI3
aI3
aa(lp1013
I3
aI3
aI5
aI-3
aI3
aI3
aI5
aI-3
aa(lp1014
I5
aI-3
aI3
aI3
aI5
aI-3
aI3
aI3
aa(lp1015
I3
aI3
aI5
aI-3
aI3
aI3
aI5
aI-7
aa(lp1016
I5
aI-3
aI3
aI3
aI5
aI-7
aI1
aI7
aa(lp1017
I3
aI3
aI5
aI-7
aI1
aI7
aI5
aI-7
aa(lp1018
I5
aI-7
aI1
aI7
aI5
aI-7
aI1
aI7
aa(lp1019
I1
aI7
aI5
aI-7
aI1
aI7
aI5
aI-7
aa(lp1020
I5
aI-7
aI1
aI7
aI5
aI-7
aI1
aI7
aa(lp1021
I1
aI7
aI5
aI-7
aI1
aI7
aI5
aI-7
aa(lp1022
I5
aI-7
aI1
aI7
aI5
aI-7
aI1
aI7
aa(lp1023
I1
aI7
aI5
aI-7
aI1
aI7
aI5
aI-7
aa(lp1024
I5
aI-7
aI1
aI7
aI5
aI-7
aI1
aI4
aa(lp1025
I1
aI7
aI5
aI-7
aI1
aI4
aI3
aI-2
aa(lp1026
I5
aI-7
aI1
aI4
aI3
aI-2
aI2
aI-2
aa(lp1027
I1
aI4
aI3
aI-2
aI2
aI-2
aI1
aI2
aa(lp1028
I3
aI-2
aI2
aI-2
aI1
aI2
aI2
aI3
aa(lp1029
I2
aI-2
aI1
aI2
aI2
aI3
aI4
aI-1
aa(lp1030
I1
aI2
aI2
aI3
aI4
aI-1
aI3
aI-2
aa(lp1031
I2
aI3
aI4
aI-1
aI3
aI-2
aI2
aI2
aa(lp1032
I4
aI-1
aI3
aI-2
aI2
aI2
aI3
aI3
aa(lp1033
I3
aI-2
aI2
aI2
aI3
aI3
aI5
aI-2
aa(lp1034
I2
aI2
aI3
aI3
aI5
aI-2
aI4
aI-1
aa(lp1035
I3
aI3
aI5
aI-2
aI4
aI-1
aI3
aI-2
aa(lp1036
I5
aI-2
aI4
aI-1
aI3
aI-2
aI2
aI3
aa(lp1037
I4
aI-1
aI3
aI-2
aI2
aI3
aI4
aI-1
aa(lp1038
I3
aI-2
aI2
aI3
aI4
aI-1
aI3
aI-2
aa(lp1039
I2
aI3
aI4
aI-1
aI3
aI-2
aI2
aI-2
aa(lp1040
I4
aI-1
aI3
aI-2
aI2
aI-2
aI1
aI4
aa(lp1041
I3
aI-2
aI2
aI-2
aI1
aI4
aI3
aI-2
aa(lp1042
I2
aI-2
aI1
aI4
aI3
aI-2
aI2
aI-2
aa(lp1043
I1
aI4
aI3
aI-2
aI2
aI-2
aI1
aI2
aa(lp1044
I3
aI-2
aI2
aI-2
aI1
aI2
aI2
aI3
aa(lp1045
I2
aI-2
aI1
aI2
aI2
aI3
aI4
aI-1
aa(lp1046
I1
aI2
aI2
aI3
aI4
aI-1
aI3
aI-2
aa(lp1047
I2
aI3
aI4
aI-1
aI3
aI-2
aI2
aI2
aa(lp1048
I4
aI-1
aI3
aI-2
aI2
aI2
aI3
aI3
aa(lp1049
I3
aI-2
aI2
aI2
aI3
aI3
aI5
aI-3
aa(lp1050
I2
aI2
aI3
aI3
aI5
aI-3
aI3
aI-2
aa(lp1051
I3
aI3
aI5
aI-3
aI3
aI-2
aI2
aI-2
aa(lp1052
I5
aI-3
aI3
aI-2
aI2
aI-2
aI1
aI4
aa(lp1053
I3
aI-2
aI2
aI-2
aI1
aI4
aI3
aI-2
aa(lp1054
I2
aI-2
aI1
aI4
aI3
aI-2
aI2
aI-2
aa(lp1055
I1
aI4
aI3
aI-2
aI2
aI-2
aI1
aI2
aa(lp1056
I3
aI-2
aI2
aI-2
aI1
aI2
aI2
aI5
aa(lp1057
I2
aI-2
aI1
aI2
aI2
aI5
aI5
aI-5
aa(lp1058
I1
aI2
aI2
aI5
aI5
aI-5
aI2
aI5
aa(lp1059
I2
aI5
aI5
aI-5
aI2
aI5
aI5
aI-3
aa(lp1060
I5
aI-5
aI2
aI5
aI5
aI-3
aI3
aI3
aa(lp1061
I2
aI5
aI5
aI-3
aI3
aI3
aI5
aI-3
aa(lp1062
I5
aI-3
aI3
aI3
aI5
aI-3
aI3
aI3
aa(lp1063
I3
aI3
aI5
aI-3
aI3
aI3
aI5
aI-2
aa(lp1064
I5
aI-3
aI3
aI3
aI5
aI-2
aI4
aI2
aa(lp1065
I3
aI3
aI5
aI-2
aI4
aI2
aI5
aI-2
aa(lp1066
I5
aI-2
aI4
aI2
aI5
aI-2
aI4
aI2
aa(lp1067
I4
aI2
aI5
aI-2
aI4
aI2
aI5
aI-5
aa(lp1068
I5
aI-2
aI4
aI2
aI5
aI-5
aI2
aI5
aa(lp1069
I4
aI2
aI5
aI-5
aI2
aI5
aI5
aI-5
aa(lp1070
I5
aI-5
aI2
aI5
aI5
aI-5
aI2
aI5
aa(lp1071
I2
aI5
aI5
aI-5
aI2
aI5
aI5
aI-7
aa(lp1072
I5
aI-5
aI2
aI5
aI5
aI-7
aI1
aI4
aa(lp1073
I2
aI5
aI5
aI-7
aI1
aI4
aI3
aI3
aa(lp1074
I5
aI-7
aI1
aI4
aI3
aI3
aI5
aI-3
aa(lp1075
I1
aI4
aI3
aI3
aI5
aI-3
aI3
aI-4
aa(lp1076
I3
aI3
aI5
aI-3
aI3
aI-4
aI1
aI4
aa(lp1077
I5
aI-3
aI3
aI-4
aI1
aI4
aI3
aI3
aa(lp1078
I3
aI-4
aI1
aI4
aI3
aI3
aI5
aI-3
aa(lp1079
I1
aI4
aI3
aI3
aI5
aI-3
aI3
aI-4
aa(lp1080
I3
aI3
aI5
aI-3
aI3
aI-4
aI1
aI7
aa(lp1081
I5
aI-3
aI3
aI-4
aI1
aI7
aI5
aI-2
aa(lp1082
I3
aI-4
aI1
aI7
aI5
aI-2
aI4
aI-1
aa(lp1083
I1
aI7
aI5
aI-2
aI4
aI-1
aI3
aI-2
aa(lp1084
I5
aI-2
aI4
aI-1
aI3
aI-2
aI2
aI5
aa(lp1085
I4
aI-1
aI3
aI-2
aI2
aI5
aI5
aI-2
aa(lp1086
I3
aI-2
aI2
aI5
aI5
aI-2
aI4
aI-1
aa(lp1087
I2
aI5
aI5
aI-2
aI4
aI-1
aI3
aI-2
aa(lp1088
I5
aI-2
aI4
aI-1
aI3
aI-2
aI2
aI5
aa(lp1089
I4
aI-1
aI3
aI-2
aI2
aI5
aI5
aI-2
aa(lp1090
I3
aI-2
aI2
aI5
aI5
aI-2
aI4
aI-1
aa(lp1091
I2
aI5
aI5
aI-2
aI4
aI-1
aI3
aI-2
aa(lp1092
I5
aI-2
aI4
aI-1
aI3
aI-2
aI2
aI5
aa(lp1093
I4
aI-1
aI3
aI-2
aI2
aI5
aI5
aI-2
aa(lp1094
I3
aI-2
aI2
aI5
aI5
aI-2
aI4
aI-1
aa(lp1095
I2
aI5
aI5
aI-2
aI4
aI-1
aI3
aI-2
aa(lp1096
I5
aI-2
aI4
aI-1
aI3
aI-2
aI2
aI2
aa(lp1097
I4
aI-1
aI3
aI-2
aI2
aI2
aI3
aI1
aa(lp1098
I3
aI-2
aI2
aI2
aI3
aI1
aI4
aI-1
aa(lp1099
I2
aI2
aI3
aI1
aI4
aI-1
aI3
aI-2
aa(lp1100
I3
aI1
aI4
aI-1
aI3
aI-2
aI2
aI-2
aa(lp1101
I4
aI-1
aI3
aI-2
aI2
aI-2
aI1
aI2
aa(lp1102
I3
aI-2
aI2
aI-2
aI1
aI2
aI2
aI2
aa(lp1103
I2
aI-2
aI1
aI2
aI2
aI2
aI3
aI1
aa(lp1104
I1
aI2
aI2
aI2
aI3
aI1
aI4
aI2
aa(lp1105
I2
aI2
aI3
aI1
aI4
aI2
aI5
aI-7
aa(lp1106
I3
aI1
aI4
aI2
aI5
aI-7
aI1
aI4
aa(lp1107
I4
aI2
aI5
aI-7
aI1
aI4
aI3
aI-4
aa(lp1108
I5
aI-7
aI1
aI4
aI3
aI-4
aI1
aI7
aa(lp1109
I1
aI4
aI3
aI-4
aI1
aI7
aI5
aI-7
aa(lp1110
I3
aI-4
aI1
aI7
aI5
aI-7
aI1
aI4
aa(lp1111
I1
aI7
aI5
aI-7
aI1
aI4
aI3
aI-4
aa(lp1112
I5
aI-7
aI1
aI4
aI3
aI-4
aI1
aI7
aa(lp1113
I1
aI4
aI3
aI-4
aI1
aI7
aI5
aI-2
aa(lp1114
I3
aI-4
aI1
aI7
aI5
aI-2
aI4
aI-1
aa(lp1115
I1
aI7
aI5
aI-2
aI4
aI-1
aI3
aI-2
aa(lp1116
I5
aI-2
aI4
aI-1
aI3
aI-2
aI2
aI5
aa(lp1117
I4
aI-1
aI3
aI-2
aI2
aI5
aI5
aI-2
aa(lp1118
I3
aI-2
aI2
aI5
aI5
aI-2
aI4
aI-1
aa(lp1119
I2
aI5
aI5
aI-2
aI4
aI-1
aI3
aI-2
aa(lp1120
I5
aI-2
aI4
aI-1
aI3
aI-2
aI2
aI5
aa(lp1121
I4
aI-1
aI3
aI-2
aI2
aI5
aI5
aI-2
aa(lp1122
I3
aI-2
aI2
aI5
aI5
aI-2
aI4
aI-1
aa(lp1123
I2
aI5
aI5
aI-2
aI4
aI-1
aI3
aI-2
aa(lp1124
I5
aI-2
aI4
aI-1
aI3
aI-2
aI2
aI5
aa(lp1125
I4
aI-1
aI3
aI-2
aI2
aI5
aI5
aI-2
aa(lp1126
I3
aI-2
aI2
aI5
aI5
aI-2
aI4
aI-1
aa(lp1127
I2
aI5
aI5
aI-2
aI4
aI-1
aI3
aI-2
aa(lp1128
I5
aI-2
aI4
aI-1
aI3
aI-2
aI2
aI2
aa(lp1129
I4
aI-1
aI3
aI-2
aI2
aI2
aI3
aI1
aa(lp1130
I3
aI-2
aI2
aI2
aI3
aI1
aI4
aI-1
aa(lp1131
I2
aI2
aI3
aI1
aI4
aI-1
aI3
aI-2
aa(lp1132
I3
aI1
aI4
aI-1
aI3
aI-2
aI2
aI-2
aa(lp1133
I4
aI-1
aI3
aI-2
aI2
aI-2
aI1
aI2
aa(lp1134
I3
aI-2
aI2
aI-2
aI1
aI2
aI2
aI2
aa(lp1135
I2
aI-2
aI1
aI2
aI2
aI2
aI3
aI1
aa(lp1136
I1
aI2
aI2
aI2
aI3
aI1
aI4
aI2
aa(lp1137
I2
aI2
aI3
aI1
aI4
aI2
aI5
aI-7
aa(lp1138
I3
aI1
aI4
aI2
aI5
aI-7
aI1
aI4
aa(lp1139
I4
aI2
aI5
aI-7
aI1
aI4
aI3
aI-4
aa(lp1140
I5
aI-7
aI1
aI4
aI3
aI-4
aI1
aI7
aa(lp1141
I1
aI4
aI3
aI-4
aI1
aI7
aI5
aI-7
aa(lp1142
I3
aI-4
aI1
aI7
aI5
aI-7
aI1
aI4
aa(lp1143
I1
aI7
aI5
aI-7
aI1
aI4
aI3
aI-4
aa(lp1144
I5
aI-7
aI1
aI4
aI3
aI-4
aI1
aI4
aa(lp1145
I1
aI4
aI3
aI-4
aI1
aI4
aI3
aI3
aa(lp1146
I3
aI-4
aI1
aI4
aI3
aI3
aI5
aI-2
aa(lp1147
I1
aI4
aI3
aI3
aI5
aI-2
aI4
aI-1
aa(lp1148
I3
aI3
aI5
aI-2
aI4
aI-1
aI3
aI-2
aa(lp1149
I5
aI-2
aI4
aI-1
aI3
aI-2
aI2
aI3
aa(lp1150
I4
aI-1
aI3
aI-2
aI2
aI3
aI4
aI-1
aa(lp1151
I3
aI-2
aI2
aI3
aI4
aI-1
aI3
aI-2
aa(lp1152
I2
aI3
aI4
aI-1
aI3
aI-2
aI2
aI-2
aa(lp1153
I4
aI-1
aI3
aI-2
aI2
aI-2
aI1
aI4
aa(lp1154
I3
aI-2
aI2
aI-2
aI1
aI4
aI3
aI-2
aa(lp1155
I2
aI-2
aI1
aI4
aI3
aI-2
aI2
aI-2
aa(lp1156
I1
aI4
aI3
aI-2
aI2
aI-2
aI1
aI2
aa(lp1157
I3
aI-2
aI2
aI-2
aI1
aI2
aI2
aI3
aa(lp1158
I2
aI-2
aI1
aI2
aI2
aI3
aI4
aI-1
aa(lp1159
I1
aI2
aI2
aI3
aI4
aI-1
aI3
aI-2
aa(lp1160
I2
aI3
aI4
aI-1
aI3
aI-2
aI2
aI2
aa(lp1161
I4
aI-1
aI3
aI-2
aI2
aI2
aI3
aI3
aa(lp1162
I3
aI-2
aI2
aI2
aI3
aI3
aI5
aI-2
aa(lp1163
I2
aI2
aI3
aI3
aI5
aI-2
aI4
aI-1
aa(lp1164
I3
aI3
aI5
aI-2
aI4
aI-1
aI3
aI-2
aa(lp1165
I5
aI-2
aI4
aI-1
aI3
aI-2
aI2
aI3
aa(lp1166
I4
aI-1
aI3
aI-2
aI2
aI3
aI4
aI-1
aa(lp1167
I3
aI-2
aI2
aI3
aI4
aI-1
aI3
aI-2
aa(lp1168
I2
aI3
aI4
aI-1
aI3
aI-2
aI2
aI-2
aa(lp1169
I4
aI-1
aI3
aI-2
aI2
aI-2
aI1
aI4
aa(lp1170
I3
aI-2
aI2
aI-2
aI1
aI4
aI3
aI-2
aa(lp1171
I2
aI-2
aI1
aI4
aI3
aI-2
aI2
aI-2
aa(lp1172
I1
aI4
aI3
aI-2
aI2
aI-2
aI1
aI4
aa(lp1173
I3
aI-2
aI2
aI-2
aI1
aI4
aI3
aI3
aa(lp1174
I2
aI-2
aI1
aI4
aI3
aI3
aI5
aI-2
aa(lp1175
I1
aI4
aI3
aI3
aI5
aI-2
aI4
aI-1
aa(lp1176
I3
aI3
aI5
aI-2
aI4
aI-1
aI3
aI-2
aa(lp1177
I5
aI-2
aI4
aI-1
aI3
aI-2
aI2
aI5
aa(lp1178
I4
aI-1
aI3
aI-2
aI2
aI5
aI5
aI-3
aa(lp1179
I3
aI-2
aI2
aI5
aI5
aI-3
aI3
aI3
aa(lp1180
I2
aI5
aI5
aI-3
aI3
aI3
aI5
aI-2
aa(lp1181
I5
aI-3
aI3
aI3
aI5
aI-2
aI4
aI2
aa(lp1182
I3
aI3
aI5
aI-2
aI4
aI2
aI5
aI-3
aa(lp1183
I5
aI-2
aI4
aI2
aI5
aI-3
aI3
aI3
aa(lp1184
I4
aI2
aI5
aI-3
aI3
aI3
aI5
aI-5
aa(lp1185
I5
aI-3
aI3
aI3
aI5
aI-5
aI2
aI5
aa(lp1186
I3
aI3
aI5
aI-5
aI2
aI5
aI5
aI-2
aa(lp1187
I5
aI-5
aI2
aI5
aI5
aI-2
aI4
aI2
aa(lp1188
I2
aI5
aI5
aI-2
aI4
aI2
aI5
aI-3
aa(lp1189
I5
aI-2
aI4
aI2
aI5
aI-3
aI3
aI3
aa(lp1190
I4
aI2
aI5
aI-3
aI3
aI3
aI5
aI-5
aa(lp1191
I5
aI-3
aI3
aI3
aI5
aI-5
aI2
aI5
aa(lp1192
I3
aI3
aI5
aI-5
aI2
aI5
aI5
aI-7
aa(lp1193
I5
aI-5
aI2
aI5
aI5
aI-7
aI1
aI7
aa(lp1194
I2
aI5
aI5
aI-7
aI1
aI7
aI5
aI-3
aa(lp1195
I5
aI-7
aI1
aI7
aI5
aI-3
aI3
aI3
aa(lp1196
I1
aI7
aI5
aI-3
aI3
aI3
aI5
aI-7
aa(lp1197
I5
aI-3
aI3
aI3
aI5
aI-7
aI1
aI7
aa(lp1198
I3
aI3
aI5
aI-7
aI1
aI7
aI5
aI-3
aa(lp1199
I5
aI-7
aI1
aI7
aI5
aI-3
aI3
aI3
aa(lp1200
I1
aI7
aI5
aI-3
aI3
aI3
aI5
aI-7
aa(lp1201
I1
aI4
aI2
aI3
aI3
aI5
aI5
aI0
aa(lp1202
I2
aI3
aI3
aI5
aI5
aI0
aI5
aI-3
aa(lp1203
I3
aI5
aI5
aI0
aI5
aI-3
aI3
aI-4
aa(lp1204
I5
aI0
aI5
aI-3
aI3
aI-4
aI1
aI4
aa(lp1205
I5
aI-3
aI3
aI-4
aI1
aI4
aI4
aI-2
aa(lp1206
I3
aI-4
aI1
aI4
aI4
aI-2
aI3
aI-3
aa(lp1207
I1
aI4
aI4
aI-2
aI3
aI-3
aI2
aI-4
aa(lp1208
I4
aI-2
aI3
aI-3
aI2
aI-4
aI1
aI4
aa(lp1209
I3
aI-3
aI2
aI-4
aI1
aI4
aI2
aI-2
aa(lp1210
I2
aI-4
aI1
aI4
aI2
aI-2
aI1
aI0
aa(lp1211
I1
aI4
aI2
aI-2
aI1
aI0
aI1
aI0
aa(lp1212
I2
aI-2
aI1
aI0
aI1
aI0
aI1
aI-2
aa(lp1213
I1
aI0
aI1
aI0
aI1
aI-2
aI1
aI4
aa(lp1214
I1
aI0
aI1
aI-2
aI1
aI4
aI2
aI3
aa(lp1215
I1
aI-2
aI1
aI4
aI2
aI3
aI3
aI5
aa(lp1216
I1
aI4
aI2
aI3
aI3
aI5
aI5
aI0
aa(lp1217
I2
aI3
aI3
aI5
aI5
aI0
aI5
aI-3
aa(lp1218
I3
aI5
aI5
aI0
aI5
aI-3
aI3
aI-4
aa(lp1219
I5
aI0
aI5
aI-3
aI3
aI-4
aI1
aI4
aa(lp1220
I5
aI-3
aI3
aI-4
aI1
aI4
aI4
aI-2
aa(lp1221
I3
aI-4
aI1
aI4
aI4
aI-2
aI5
aI-3
aa(lp1222
I1
aI4
aI4
aI-2
aI5
aI-3
aI3
aI3
aa(lp1223
I4
aI-2
aI5
aI-3
aI3
aI3
aI5
aI-2
aa(lp1224
I5
aI-3
aI3
aI3
aI5
aI-2
aI4
aI-3
aa(lp1225
I3
aI3
aI5
aI-2
aI4
aI-3
aI2
aI-2
aa(lp1226
I5
aI-2
aI4
aI-3
aI2
aI-2
aI1
aI0
aa(lp1227
I4
aI-3
aI2
aI-2
aI1
aI0
aI3
aI0
aa(lp1228
I2
aI-2
aI1
aI0
aI3
aI0
aI2
aI0
aa(lp1229
I1
aI0
aI3
aI0
aI2
aI0
aI1
aI2
aa(lp1230
I3
aI0
aI2
aI0
aI1
aI2
aI2
aI2
aa(lp1231
I2
aI0
aI1
aI2
aI2
aI2
aI3
aI1
aa(lp1232
I1
aI2
aI2
aI2
aI3
aI1
aI4
aI0
aa(lp1233
I2
aI2
aI3
aI1
aI4
aI0
aI4
aI-1
aa(lp1234
I3
aI1
aI4
aI0
aI4
aI-1
aI3
aI-2
aa(lp1235
I4
aI0
aI4
aI-1
aI3
aI-2
aI2
aI2
aa(lp1236
I4
aI-1
aI3
aI-2
aI2
aI2
aI3
aI1
aa(lp1237
I3
aI-2
aI2
aI2
aI3
aI1
aI4
aI2
aa(lp1238
I2
aI2
aI3
aI1
aI4
aI2
aI5
aI0
aa(lp1239
I3
aI1
aI4
aI2
aI5
aI0
aI5
aI-5
aa(lp1240
I4
aI2
aI5
aI0
aI5
aI-5
aI2
aI2
aa(lp1241
I5
aI0
aI5
aI-5
aI2
aI2
aI3
aI1
aa(lp1242
I5
aI-5
aI2
aI2
aI3
aI1
aI4
aI0
aa(lp1243
I2
aI2
aI3
aI1
aI4
aI0
aI4
aI-1
aa(lp1244
I3
aI1
aI4
aI0
aI4
aI-1
aI3
aI-2
aa(lp1245
I4
aI0
aI4
aI-1
aI3
aI-2
aI2
aI2
aa(lp1246
I4
aI-1
aI3
aI-2
aI2
aI2
aI3
aI1
aa(lp1247
I3
aI-2
aI2
aI2
aI3
aI1
aI4
aI2
aa(lp1248
I2
aI2
aI3
aI1
aI4
aI2
aI5
aI0
aa(lp1249
I3
aI1
aI4
aI2
aI5
aI0
aI5
aI-7
aa(lp1250
I4
aI2
aI5
aI0
aI5
aI-7
aI1
aI4
aa(lp1251
I5
aI0
aI5
aI-7
aI1
aI4
aI2
aI3
aa(lp1252
I5
aI-7
aI1
aI4
aI2
aI3
aI3
aI5
aa(lp1253
I1
aI4
aI2
aI3
aI3
aI5
aI5
aI0
aa(lp1254
I2
aI3
aI3
aI5
aI5
aI0
aI5
aI-1
aa(lp1255
I3
aI5
aI5
aI0
aI5
aI-1
aI4
aI-2
aa(lp1256
I5
aI0
aI5
aI-1
aI4
aI-2
aI3
aI-2
aa(lp1257
I5
aI-1
aI4
aI-2
aI3
aI-2
aI2
aI-2
aa(lp1258
I4
aI-2
aI3
aI-2
aI2
aI-2
aI1
aI-1
aa(lp1259
I3
aI-2
aI2
aI-2
aI1
aI-1
aI3
aI3
aa(lp1260
I2
aI-2
aI1
aI-1
aI3
aI3
aI5
aI-3
aa(lp1261
I1
aI-1
aI3
aI3
aI5
aI-3
aI3
aI1
aa(lp1262
I3
aI3
aI5
aI-3
aI3
aI1
aI4
aI-3
aa(lp1263
I5
aI-3
aI3
aI1
aI4
aI-3
aI2
aI-2
aa(lp1264
I3
aI1
aI4
aI-3
aI2
aI-2
aI1
aI0
aa(lp1265
I4
aI-3
aI2
aI-2
aI1
aI0
aI1
aI0
aa(lp1266
I1
aI2
aI2
aI2
aI3
aI1
aI4
aI2
aa(lp1267
I2
aI2
aI3
aI1
aI4
aI2
aI5
aI-2
aa(lp1268
I3
aI1
aI4
aI2
aI5
aI-2
aI4
aI-1
aa(lp1269
I4
aI2
aI5
aI-2
aI4
aI-1
aI3
aI-2
aa(lp1270
I5
aI-2
aI4
aI-1
aI3
aI-2
aI2
aI-2
aa(lp1271
I4
aI-1
aI3
aI-2
aI2
aI-2
aI1
aI2
aa(lp1272
I3
aI-2
aI2
aI-2
aI1
aI2
aI2
aI2
aa(lp1273
I2
aI-2
aI1
aI2
aI2
aI2
aI3
aI1
aa(lp1274
I1
aI2
aI2
aI2
aI3
aI1
aI1
aI2
aa(lp1275
I2
aI2
aI3
aI1
aI1
aI2
aI2
aI2
aa(lp1276
I3
aI1
aI1
aI2
aI2
aI2
aI3
aI1
aa(lp1277
I1
aI2
aI2
aI2
aI3
aI1
aI4
aI2
aa(lp1278
I2
aI2
aI3
aI1
aI4
aI2
aI5
aI-7
aa(lp1279
I3
aI1
aI4
aI2
aI5
aI-7
aI1
aI2
aa(lp1280
I4
aI2
aI5
aI-7
aI1
aI2
aI2
aI2
aa(lp1281
I5
aI-7
aI1
aI2
aI2
aI2
aI3
aI1
aa(lp1282
I1
aI2
aI2
aI2
aI3
aI1
aI4
aI2
aa(lp1283
I2
aI2
aI3
aI1
aI4
aI2
aI5
aI-2
aa(lp1284
I3
aI1
aI4
aI2
aI5
aI-2
aI4
aI-1
aa(lp1285
I4
aI2
aI5
aI-2
aI4
aI-1
aI3
aI-2
aa(lp1286
I5
aI-2
aI4
aI-1
aI3
aI-2
aI2
aI-2
aa(lp1287
I4
aI-1
aI3
aI-2
aI2
aI-2
aI1
aI2
aa(lp1288
I3
aI-2
aI2
aI-2
aI1
aI2
aI2
aI3
aa(lp1289
I2
aI-2
aI1
aI2
aI2
aI3
aI3
aI-1
aa(lp1290
I1
aI2
aI2
aI3
aI3
aI-1
aI4
aI-2
aa(lp1291
I2
aI3
aI3
aI-1
aI4
aI-2
aI5
aI-2
aa(lp1292
I3
aI-1
aI4
aI-2
aI5
aI-2
aI4
aI-1
aa(lp1293
I4
aI-2
aI5
aI-2
aI4
aI-1
aI3
aI-2
aa(lp1294
I5
aI-2
aI4
aI-1
aI3
aI-2
aI2
aI-2
aa(lp1295
I4
aI-1
aI3
aI-2
aI2
aI-2
aI1
aI2
aa(lp1296
I3
aI-2
aI2
aI-2
aI1
aI2
aI2
aI2
aa(lp1297
I2
aI-2
aI1
aI2
aI2
aI2
aI3
aI1
aa(lp1298
I1
aI2
aI2
aI2
aI3
aI1
aI4
aI2
aa(lp1299
I2
aI2
aI3
aI1
aI4
aI2
aI5
aI-2
aa(lp1300
I3
aI1
aI4
aI2
aI5
aI-2
aI4
aI-1
aa(lp1301
I4
aI2
aI5
aI-2
aI4
aI-1
aI3
aI-2
aa(lp1302
I5
aI-2
aI4
aI-1
aI3
aI-2
aI2
aI-2
aa(lp1303
I4
aI-1
aI3
aI-2
aI2
aI-2
aI1
aI2
aa(lp1304
I3
aI-2
aI2
aI-2
aI1
aI2
aI2
aI2
aa(lp1305
I2
aI-2
aI1
aI2
aI2
aI2
aI3
aI1
aa(lp1306
I1
aI2
aI2
aI2
aI3
aI1
aI1
aI2
aa(lp1307
I2
aI2
aI3
aI1
aI1
aI2
aI2
aI2
aa(lp1308
I3
aI1
aI1
aI2
aI2
aI2
aI3
aI1
aa(lp1309
I1
aI2
aI2
aI2
aI3
aI1
aI4
aI2
aa(lp1310
I2
aI2
aI3
aI1
aI4
aI2
aI5
aI-3
aa(lp1311
I3
aI1
aI4
aI2
aI5
aI-3
aI3
aI-2
aa(lp1312
I4
aI2
aI5
aI-3
aI3
aI-2
aI2
aI2
aa(lp1313
I5
aI-3
aI3
aI-2
aI2
aI2
aI3
aI1
aa(lp1314
I3
aI-2
aI2
aI2
aI3
aI1
aI4
aI2
aa(lp1315
I2
aI2
aI3
aI1
aI4
aI2
aI5
aI-2
aa(lp1316
I3
aI1
aI4
aI2
aI5
aI-2
aI4
aI-1
aa(lp1317
I4
aI2
aI5
aI-2
aI4
aI-1
aI3
aI-2
aa(lp1318
I5
aI-2
aI4
aI-1
aI3
aI-2
aI2
aI-2
aa(lp1319
I4
aI-1
aI3
aI-2
aI2
aI-2
aI1
aI-1
aa(lp1320
I3
aI-2
aI2
aI-2
aI1
aI-1
aI4
aI-2
aa(lp1321
I2
aI-2
aI1
aI-1
aI4
aI-2
aI3
aI-2
aa(lp1322
I1
aI-1
aI4
aI-2
aI3
aI-2
aI2
aI-2
aa(lp1323
I4
aI-2
aI3
aI-2
aI2
aI-2
aI1
aI-1
aa(lp1324
I3
aI-2
aI2
aI-2
aI1
aI-1
aI3
aI-2
aa(lp1325
I2
aI-2
aI1
aI-1
aI3
aI-2
aI2
aI-2
aa(lp1326
I1
aI2
aI2
aI2
aI3
aI1
aI4
aI2
aa(lp1327
I2
aI2
aI3
aI1
aI4
aI2
aI5
aI-2
aa(lp1328
I3
aI1
aI4
aI2
aI5
aI-2
aI4
aI-1
aa(lp1329
I4
aI2
aI5
aI-2
aI4
aI-1
aI3
aI-2
aa(lp1330
I5
aI-2
aI4
aI-1
aI3
aI-2
aI2
aI-2
aa(lp1331
I4
aI-1
aI3
aI-2
aI2
aI-2
aI1
aI2
aa(lp1332
I3
aI-2
aI2
aI-2
aI1
aI2
aI2
aI2
aa(lp1333
I2
aI-2
aI1
aI2
aI2
aI2
aI3
aI1
aa(lp1334
I1
aI2
aI2
aI2
aI3
aI1
aI1
aI2
aa(lp1335
I2
aI2
aI3
aI1
aI1
aI2
aI2
aI2
aa(lp1336
I3
aI1
aI1
aI2
aI2
aI2
aI3
aI1
aa(lp1337
I1
aI2
aI2
aI2
aI3
aI1
aI4
aI2
aa(lp1338
I2
aI2
aI3
aI1
aI4
aI2
aI5
aI-7
aa(lp1339
I3
aI1
aI4
aI2
aI5
aI-7
aI1
aI2
aa(lp1340
I4
aI2
aI5
aI-7
aI1
aI2
aI2
aI2
aa(lp1341
I5
aI-7
aI1
aI2
aI2
aI2
aI3
aI1
aa(lp1342
I1
aI2
aI2
aI2
aI3
aI1
aI4
aI2
aa(lp1343
I2
aI2
aI3
aI1
aI4
aI2
aI5
aI-2
aa(lp1344
I3
aI1
aI4
aI2
aI5
aI-2
aI4
aI-1
aa(lp1345
I4
aI2
aI5
aI-2
aI4
aI-1
aI3
aI-2
aa(lp1346
I5
aI-2
aI4
aI-1
aI3
aI-2
aI2
aI-2
aa(lp1347
I4
aI-1
aI3
aI-2
aI2
aI-2
aI1
aI2
aa(lp1348
I3
aI-2
aI2
aI-2
aI1
aI2
aI2
aI3
aa(lp1349
I2
aI-2
aI1
aI2
aI2
aI3
aI3
aI-1
aa(lp1350
I1
aI2
aI2
aI3
aI3
aI-1
aI4
aI-2
aa(lp1351
I2
aI3
aI3
aI-1
aI4
aI-2
aI5
aI-2
aa(lp1352
I3
aI-1
aI4
aI-2
aI5
aI-2
aI4
aI-1
aa(lp1353
I4
aI-2
aI5
aI-2
aI4
aI-1
aI3
aI-2
aa(lp1354
I5
aI-2
aI4
aI-1
aI3
aI-2
aI2
aI-2
aa(lp1355
I4
aI-1
aI3
aI-2
aI2
aI-2
aI1
aI2
aa(lp1356
I3
aI-2
aI2
aI-2
aI1
aI2
aI2
aI2
aa(lp1357
I2
aI-2
aI1
aI2
aI2
aI2
aI3
aI1
aa(lp1358
I1
aI2
aI2
aI2
aI3
aI1
aI4
aI2
aa(lp1359
I2
aI2
aI3
aI1
aI4
aI2
aI5
aI-2
aa(lp1360
I3
aI1
aI4
aI2
aI5
aI-2
aI4
aI-1
aa(lp1361
I4
aI2
aI5
aI-2
aI4
aI-1
aI3
aI-2
aa(lp1362
I5
aI-2
aI4
aI-1
aI3
aI-2
aI2
aI-2
aa(lp1363
I4
aI-1
aI3
aI-2
aI2
aI-2
aI1
aI2
aa(lp1364
I3
aI-2
aI2
aI-2
aI1
aI2
aI2
aI2
aa(lp1365
I2
aI-2
aI1
aI2
aI2
aI2
aI3
aI1
aa(lp1366
I1
aI2
aI2
aI2
aI3
aI1
aI1
aI2
aa(lp1367
I2
aI2
aI3
aI1
aI1
aI2
aI2
aI2
aa(lp1368
I3
aI1
aI1
aI2
aI2
aI2
aI3
aI1
aa(lp1369
I1
aI2
aI2
aI2
aI3
aI1
aI4
aI2
aa(lp1370
I2
aI2
aI3
aI1
aI4
aI2
aI5
aI-3
aa(lp1371
I3
aI1
aI4
aI2
aI5
aI-3
aI3
aI-2
aa(lp1372
I4
aI2
aI5
aI-3
aI3
aI-2
aI2
aI2
aa(lp1373
I5
aI-3
aI3
aI-2
aI2
aI2
aI3
aI1
aa(lp1374
I3
aI-2
aI2
aI2
aI3
aI1
aI4
aI2
aa(lp1375
I2
aI2
aI3
aI1
aI4
aI2
aI5
aI-2
aa(lp1376
I3
aI1
aI4
aI2
aI5
aI-2
aI4
aI-1
aa(lp1377
I4
aI2
aI5
aI-2
aI4
aI-1
aI3
aI-2
aa(lp1378
I5
aI-2
aI4
aI-1
aI3
aI-2
aI2
aI-2
aa(lp1379
I4
aI-1
aI3
aI-2
aI2
aI-2
aI1
aI-1
aa(lp1380
I3
aI-2
aI2
aI-2
aI1
aI-1
aI3
aI-2
aa(lp1381
I2
aI-2
aI1
aI-1
aI3
aI-2
aI2
aI-2
aa(lp1382
I1
aI-1
aI3
aI-2
aI2
aI-2
aI1
aI-2
aa(lp1383
I3
aI-2
aI2
aI-2
aI1
aI-2
aI4
aI-1
aa(lp1384
I2
aI-2
aI1
aI-2
aI4
aI-1
aI3
aI-2
aa(lp1385
I1
aI-2
aI4
aI-1
aI3
aI-2
aI2
aI-2
aa(lp1386
I1
aI5
aI3
aI4
aI5
aI-4
aI3
aI-5
aa(lp1387
I3
aI4
aI5
aI-4
aI3
aI-5
aI1
aI-3
aa(lp1388
I5
aI-4
aI3
aI-5
aI1
aI-3
aI2
aI-4
aa(lp1389
I3
aI-5
aI1
aI-3
aI2
aI-4
aI1
aI9
aa(lp1390
I1
aI-3
aI2
aI-4
aI1
aI9
aI5
aI-2
aa(lp1391
I2
aI-4
aI1
aI9
aI5
aI-2
aI4
aI-3
aa(lp1392
I1
aI9
aI5
aI-2
aI4
aI-3
aI3
aI-4
aa(lp1393
I5
aI-2
aI4
aI-3
aI3
aI-4
aI1
aI9
aa(lp1394
I4
aI-3
aI3
aI-4
aI1
aI9
aI5
aI-2
aa(lp1395
I3
aI-4
aI1
aI9
aI5
aI-2
aI4
aI-3
aa(lp1396
I1
aI9
aI5
aI-2
aI4
aI-3
aI2
aI3
aa(lp1397
I5
aI-2
aI4
aI-3
aI2
aI3
aI1
aI5
aa(lp1398
I4
aI-3
aI2
aI3
aI1
aI5
aI3
aI4
aa(lp1399
I2
aI3
aI1
aI5
aI3
aI4
aI5
aI-4
aa(lp1400
I1
aI5
aI3
aI4
aI5
aI-4
aI3
aI-1
aa(lp1401
I3
aI4
aI5
aI-4
aI3
aI-1
aI2
aI3
aa(lp1402
I5
aI-4
aI3
aI-1
aI2
aI3
aI1
aI9
aa(lp1403
I3
aI-1
aI2
aI3
aI1
aI9
aI5
aI-4
aa(lp1404
I2
aI3
aI1
aI9
aI5
aI-4
aI3
aI-1
aa(lp1405
I1
aI9
aI5
aI-4
aI3
aI-1
aI2
aI6
aa(lp1406
I5
aI-4
aI3
aI-1
aI2
aI6
aI5
aI-3
aa(lp1407
I3
aI-1
aI2
aI6
aI5
aI-3
aI4
aI-3
aa(lp1408
I2
aI6
aI5
aI-3
aI4
aI-3
aI2
aI-4
aa(lp1409
I5
aI-3
aI4
aI-3
aI2
aI-4
aI1
aI4
aa(lp1410
I4
aI-3
aI2
aI-4
aI1
aI4
aI2
aI1
aa(lp1411
I2
aI-4
aI1
aI4
aI2
aI1
aI3
aI-12
aa(lp1412
I1
aI4
aI2
aI1
aI3
aI-12
aI1
aI10
aa(lp1413
I2
aI1
aI3
aI-12
aI1
aI10
aI5
aI-3
aa(lp1414
I3
aI-12
aI1
aI10
aI5
aI-3
aI3
aI-7
aa(lp1415
I1
aI10
aI5
aI-3
aI3
aI-7
aI1
aI0
aa(lp1416
I5
aI-3
aI3
aI-7
aI1
aI0
aI1
aI9
aa(lp1417
I3
aI-7
aI1
aI0
aI1
aI9
aI3
aI-4
aa(lp1418
I1
aI0
aI1
aI9
aI3
aI-4
aI5
aI-5
aa(lp1419
I1
aI9
aI3
aI-4
aI5
aI-5
aI1
aI0
aa(lp1420
I3
aI-4
aI5
aI-5
aI1
aI0
aI2
aI4
aa(lp1421
I5
aI-5
aI1
aI0
aI2
aI4
aI1
aI3
aa(lp1422
I1
aI0
aI2
aI4
aI1
aI3
aI2
aI3
aa(lp1423
I2
aI4
aI1
aI3
aI2
aI3
aI3
aI4
aa(lp1424
I1
aI3
aI2
aI3
aI3
aI4
aI5
aI-2
aa(lp1425
I2
aI3
aI3
aI4
aI5
aI-2
aI4
aI0
aa(lp1426
I3
aI4
aI5
aI-2
aI4
aI0
aI5
aI-3
aa(lp1427
I5
aI-2
aI4
aI0
aI5
aI-3
aI3
aI-9
aa(lp1428
I4
aI0
aI5
aI-3
aI3
aI-9
aI1
aI10
aa(lp1429
I5
aI-3
aI3
aI-9
aI1
aI10
aI5
aI-3
aa(lp1430
I3
aI-9
aI1
aI10
aI5
aI-3
aI3
aI-7
aa(lp1431
I1
aI10
aI5
aI-3
aI3
aI-7
aI1
aI0
aa(lp1432
I5
aI-3
aI3
aI-7
aI1
aI0
aI1
aI9
aa(lp1433
I3
aI-7
aI1
aI0
aI1
aI9
aI4
aI-4
aa(lp1434
I1
aI0
aI1
aI9
aI4
aI-4
aI2
aI7
aa(lp1435
I1
aI9
aI4
aI-4
aI2
aI7
aI5
aI0
aa(lp1436
I4
aI-4
aI2
aI7
aI5
aI0
aI5
aI-2
aa(lp1437
I2
aI7
aI5
aI0
aI5
aI-2
aI4
aI-3
aa(lp1438
I5
aI0
aI5
aI-2
aI4
aI-3
aI3
aI-3
aa(lp1439
I5
aI-2
aI4
aI-3
aI3
aI-3
aI2
aI-4
aa(lp1440
I4
aI-3
aI3
aI-3
aI2
aI-4
aI1
aI4
aa(lp1441
I3
aI-3
aI2
aI-4
aI1
aI4
aI2
aI1
aa(lp1442
I1
aI2
aI2
aI-2
aI1
aI2
aI2
aI-2
aa(lp1443
I2
aI-2
aI1
aI2
aI2
aI-2
aI1
aI2
aa(lp1444
I1
aI2
aI2
aI-2
aI1
aI2
aI2
aI-2
aa(lp1445
I2
aI-2
aI1
aI2
aI2
aI-2
aI1
aI2
aa(lp1446
I1
aI2
aI2
aI-2
aI1
aI2
aI2
aI-2
aa(lp1447
I2
aI-2
aI1
aI2
aI2
aI-2
aI1
aI2
aa(lp1448
I1
aI2
aI2
aI-2
aI1
aI2
aI2
aI-2
aa(lp1449
I2
aI-2
aI1
aI2
aI2
aI-2
aI1
aI2
aa(lp1450
I1
aI2
aI2
aI-2
aI1
aI2
aI2
aI2
aa(lp1451
I2
aI-2
aI1
aI2
aI2
aI2
aI3
aI1
aa(lp1452
I1
aI2
aI2
aI2
aI3
aI1
aI4
aI-1
aa(lp1453
I2
aI2
aI3
aI1
aI4
aI-1
aI3
aI1
aa(lp1454
I3
aI1
aI4
aI-1
aI3
aI1
aI4
aI-1
aa(lp1455
I4
aI-1
aI3
aI1
aI4
aI-1
aI3
aI1
aa(lp1456
I3
aI1
aI4
aI-1
aI3
aI1
aI4
aI-1
aa(lp1457
I4
aI-1
aI3
aI1
aI4
aI-1
aI3
aI1
aa(lp1458
I3
aI1
aI4
aI-1
aI3
aI1
aI4
aI-1
aa(lp1459
I4
aI-1
aI3
aI1
aI4
aI-1
aI3
aI1
aa(lp1460
I3
aI1
aI4
aI-1
aI3
aI1
aI4
aI-1
aa(lp1461
I4
aI-1
aI3
aI1
aI4
aI-1
aI3
aI1
aa(lp1462
I3
aI1
aI4
aI-1
aI3
aI1
aI4
aI-3
aa(lp1463
I4
aI-1
aI3
aI1
aI4
aI-3
aI2
aI2
aa(lp1464
I3
aI1
aI4
aI-3
aI2
aI2
aI3
aI-2
aa(lp1465
I4
aI-3
aI2
aI2
aI3
aI-2
aI2
aI2
aa(lp1466
I2
aI2
aI3
aI-2
aI2
aI2
aI3
aI-2
aa(lp1467
I3
aI-2
aI2
aI2
aI3
aI-2
aI2
aI2
aa(lp1468
I2
aI2
aI3
aI-2
aI2
aI2
aI3
aI-2
aa(lp1469
I3
aI-2
aI2
aI2
aI3
aI-2
aI2
aI2
aa(lp1470
I2
aI2
aI3
aI-2
aI2
aI2
aI3
aI-2
aa(lp1471
I3
aI-2
aI2
aI2
aI3
aI-2
aI2
aI2
aa(lp1472
I2
aI2
aI3
aI-2
aI2
aI2
aI3
aI-2
aa(lp1473
I3
aI-2
aI2
aI2
aI3
aI-2
aI2
aI2
aa(lp1474
I2
aI2
aI3
aI-2
aI2
aI2
aI3
aI1
aa(lp1475
I3
aI-2
aI2
aI2
aI3
aI1
aI4
aI2
aa(lp1476
I2
aI2
aI3
aI1
aI4
aI2
aI5
aI-2
aa(lp1477
I3
aI1
aI4
aI2
aI5
aI-2
aI4
aI2
aa(lp1478
I4
aI2
aI5
aI-2
aI4
aI2
aI5
aI-2
aa(lp1479
I5
aI-2
aI4
aI2
aI5
aI-2
aI4
aI2
aa(lp1480
I4
aI2
aI5
aI-2
aI4
aI2
aI5
aI-2
aa(lp1481
I5
aI-2
aI4
aI2
aI5
aI-2
aI4
aI2
aa(lp1482
I4
aI2
aI5
aI-2
aI4
aI2
aI5
aI-2
aa(lp1483
I5
aI-2
aI4
aI2
aI5
aI-2
aI4
aI2
aa(lp1484
I4
aI2
aI5
aI-2
aI4
aI2
aI5
aI-2
aa(lp1485
I5
aI-2
aI4
aI2
aI5
aI-2
aI4
aI2
aa(lp1486
I4
aI2
aI5
aI-2
aI4
aI2
aI5
aI-3
aa(lp1487
I5
aI-2
aI4
aI2
aI5
aI-3
aI3
aI1
aa(lp1488
I4
aI2
aI5
aI-3
aI3
aI1
aI4
aI-1
aa(lp1489
I5
aI-3
aI3
aI1
aI4
aI-1
aI3
aI1
aa(lp1490
I3
aI1
aI4
aI-1
aI3
aI1
aI4
aI-1
aa(lp1491
I4
aI-1
aI3
aI1
aI4
aI-1
aI3
aI1
aa(lp1492
I3
aI1
aI4
aI-1
aI3
aI1
aI4
aI-1
aa(lp1493
I4
aI-1
aI3
aI1
aI4
aI-1
aI3
aI1
aa(lp1494
I3
aI1
aI4
aI-1
aI3
aI1
aI4
aI-1
aa(lp1495
I4
aI-1
aI3
aI1
aI4
aI-1
aI3
aI1
aa(lp1496
I3
aI1
aI4
aI-1
aI3
aI1
aI4
aI-1
aa(lp1497
I4
aI-1
aI3
aI1
aI4
aI-1
aI3
aI1
aa(lp1498
I3
aI1
aI4
aI-1
aI3
aI1
aI4
aI2
aa(lp1499
I4
aI-1
aI3
aI1
aI4
aI2
aI5
aI-7
aa(lp1500
I3
aI1
aI4
aI2
aI5
aI-7
aI1
aI2
aa(lp1501
I4
aI2
aI5
aI-7
aI1
aI2
aI2
aI2
aa(lp1502
I5
aI-7
aI1
aI2
aI2
aI2
aI3
aI1
aa(lp1503
I1
aI2
aI2
aI2
aI3
aI1
aI1
aI2
aa(lp1504
I2
aI2
aI3
aI1
aI1
aI2
aI2
aI2
aa(lp1505
I3
aI1
aI1
aI2
aI2
aI2
aI3
aI2
aa(lp1506
I1
aI2
aI2
aI2
aI3
aI2
aI4
aI1
aa(lp1507
I2
aI2
aI3
aI2
aI4
aI1
aI1
aI2
aa(lp1508
I3
aI2
aI4
aI1
aI1
aI2
aI2
aI2
aa(lp1509
I4
aI1
aI1
aI2
aI2
aI2
aI3
aI-4
aa(lp1510
I1
aI2
aI2
aI2
aI3
aI-4
aI1
aI2
aa(lp1511
I2
aI2
aI3
aI-4
aI1
aI2
aI2
aI2
aa(lp1512
I3
aI-4
aI1
aI2
aI2
aI2
aI3
aI-2
aa(lp1513
I1
aI2
aI2
aI2
aI3
aI-2
aI2
aI2
aa(lp1514
I2
aI2
aI3
aI-2
aI2
aI2
aI3
aI-2
aa(lp1515
I3
aI-2
aI2
aI2
aI3
aI-2
aI2
aI2
aa(lp1516
I2
aI2
aI3
aI-2
aI2
aI2
aI3
aI-2
aa(lp1517
I3
aI-2
aI2
aI2
aI3
aI-2
aI2
aI2
aa(lp1518
I2
aI2
aI3
aI-2
aI2
aI2
aI3
aI3
aa(lp1519
I3
aI-2
aI2
aI2
aI3
aI3
aI5
aI-2
aa(lp1520
I2
aI2
aI3
aI3
aI5
aI-2
aI4
aI-1
aa(lp1521
I3
aI3
aI5
aI-2
aI4
aI-1
aI3
aI-2
aa(lp1522
I5
aI-2
aI4
aI-1
aI3
aI-2
aI2
aI-2
aa(lp1523
I4
aI-1
aI3
aI-2
aI2
aI-2
aI1
aI4
aa(lp1524
I3
aI-2
aI2
aI-2
aI1
aI4
aI3
aI3
aa(lp1525
I2
aI-2
aI1
aI4
aI3
aI3
aI5
aI-3
aa(lp1526
I1
aI4
aI3
aI3
aI5
aI-3
aI3
aI-4
aa(lp1527
I3
aI3
aI5
aI-3
aI3
aI-4
aI1
aI-3
aa(lp1528
I5
aI-3
aI3
aI-4
aI1
aI-3
aI3
aI-2
aa(lp1529
I3
aI-4
aI1
aI-3
aI3
aI-2
aI2
aI2
aa(lp1530
I1
aI-3
aI3
aI-2
aI2
aI2
aI3
aI-2
aa(lp1531
I3
aI-2
aI2
aI2
aI3
aI-2
aI2
aI2
aa(lp1532
I2
aI2
aI3
aI-2
aI2
aI2
aI3
aI-2
aa(lp1533
I3
aI-2
aI2
aI2
aI3
aI-2
aI2
aI2
aa(lp1534
I2
aI2
aI3
aI-2
aI2
aI2
aI3
aI-2
aa(lp1535
I3
aI-2
aI2
aI2
aI3
aI-2
aI2
aI2
aa(lp1536
I2
aI2
aI3
aI-2
aI2
aI2
aI3
aI-2
aa(lp1537
I3
aI-2
aI2
aI2
aI3
aI-2
aI2
aI2
aa(lp1538
I2
aI2
aI3
aI-2
aI2
aI2
aI3
aI-2
aa(lp1539
I3
aI-2
aI2
aI2
aI3
aI-2
aI2
aI-2
aa(lp1540
I2
aI2
aI3
aI-2
aI2
aI-2
aI1
aI2
aa(lp1541
I3
aI-2
aI2
aI-2
aI1
aI2
aI3
aI-2
aa(lp1542
I2
aI-2
aI1
aI2
aI3
aI-2
aI2
aI2
aa(lp1543
I1
aI2
aI3
aI-2
aI2
aI2
aI3
aI-2
aa(lp1544
I3
aI-2
aI2
aI2
aI3
aI-2
aI1
aI2
aa(lp1545
I2
aI2
aI3
aI-2
aI1
aI2
aI3
aI-2
aa(lp1546
I3
aI-2
aI1
aI2
aI3
aI-2
aI2
aI2
aa(lp1547
I1
aI2
aI3
aI-2
aI2
aI2
aI3
aI-2
aa(lp1548
I3
aI-2
aI2
aI2
aI3
aI-2
aI1
aI2
aa(lp1549
I2
aI2
aI3
aI-2
aI1
aI2
aI3
aI-2
aa(lp1550
I3
aI-2
aI1
aI2
aI3
aI-2
aI2
aI2
aa(lp1551
I1
aI2
aI3
aI-2
aI2
aI2
aI3
aI-2
aa(lp1552
I3
aI-2
aI2
aI2
aI3
aI-2
aI1
aI-1
aa(lp1553
I2
aI2
aI3
aI-2
aI1
aI-1
aI2
aI1
aa(lp1554
I3
aI-2
aI1
aI-1
aI2
aI1
aI3
aI-1
aa(lp1555
I1
aI-1
aI2
aI1
aI3
aI-1
aI2
aI1
aa(lp1556
I2
aI1
aI3
aI-1
aI2
aI1
aI1
aI-1
aa(lp1557
I3
aI-1
aI2
aI1
aI1
aI-1
aI2
aI1
aa(lp1558
I2
aI1
aI1
aI-1
aI2
aI1
aI3
aI-1
aa(lp1559
I1
aI-1
aI2
aI1
aI3
aI-1
aI2
aI1
aa(lp1560
I2
aI1
aI3
aI-1
aI2
aI1
aI1
aI-1
aa(lp1561
I3
aI-1
aI2
aI1
aI1
aI-1
aI2
aI1
aa(lp1562
I2
aI1
aI1
aI-1
aI2
aI1
aI3
aI-1
aa(lp1563
I1
aI-1
aI2
aI1
aI3
aI-1
aI2
aI-2
aa(lp1564
I2
aI1
aI3
aI-1
aI2
aI-2
aI1
aI2
aa(lp1565
I3
aI-1
aI2
aI-2
aI1
aI2
aI3
aI-2
aa(lp1566
I2
aI-2
aI1
aI2
aI3
aI-2
aI2
aI2
aa(lp1567
I1
aI2
aI3
aI-2
aI2
aI2
aI3
aI-2
aa(lp1568
I3
aI-2
aI2
aI2
aI3
aI-2
aI1
aI2
aa(lp1569
I2
aI2
aI3
aI-2
aI1
aI2
aI3
aI-2
aa(lp1570
I3
aI-2
aI1
aI2
aI3
aI-2
aI2
aI2
aa(lp1571
I1
aI2
aI3
aI-2
aI2
aI2
aI3
aI-2
aa(lp1572
I3
aI-2
aI2
aI2
aI3
aI-2
aI1
aI2
aa(lp1573
I2
aI2
aI3
aI-2
aI1
aI2
aI3
aI-2
aa(lp1574
I3
aI-2
aI1
aI2
aI3
aI-2
aI2
aI2
aa(lp1575
I1
aI2
aI3
aI-2
aI2
aI2
aI3
aI-2
aa(lp1576
I3
aI-2
aI2
aI2
aI3
aI-2
aI2
aI-2
aa(lp1577
I2
aI2
aI3
aI-2
aI2
aI-2
aI1
aI2
aa(lp1578
I3
aI-2
aI2
aI-2
aI1
aI2
aI2
aI-2
aa(lp1579
I2
aI-2
aI1
aI2
aI2
aI-2
aI1
aI2
aa(lp1580
I1
aI2
aI2
aI-2
aI1
aI2
aI2
aI-2
aa(lp1581
I2
aI-2
aI1
aI2
aI2
aI-2
aI1
aI2
aa(lp1582
I1
aI2
aI2
aI-2
aI1
aI2
aI2
aI-2
aa(lp1583
I2
aI-2
aI1
aI2
aI2
aI-2
aI1
aI2
aa(lp1584
I1
aI2
aI2
aI-2
aI1
aI2
aI2
aI-2
aa(lp1585
I2
aI-2
aI1
aI2
aI2
aI-2
aI1
aI2
aa(lp1586
I1
aI2
aI2
aI-2
aI1
aI2
aI2
aI-2
aa(lp1587
I2
aI-2
aI1
aI2
aI2
aI-2
aI1
aI-1
aa(lp1588
I1
aI2
aI2
aI-2
aI1
aI-1
aI3
aI-2
aa(lp1589
I2
aI-2
aI1
aI-1
aI3
aI-2
aI2
aI2
aa(lp1590
I1
aI-1
aI3
aI-2
aI2
aI2
aI3
aI-2
aa(lp1591
I3
aI-2
aI2
aI2
aI3
aI-2
aI2
aI2
aa(lp1592
I2
aI2
aI3
aI-2
aI2
aI2
aI3
aI-2
aa(lp1593
I3
aI-2
aI2
aI2
aI3
aI-2
aI2
aI3
aa(lp1594
I2
aI2
aI3
aI-2
aI2
aI3
aI4
aI-1
aa(lp1595
I3
aI-2
aI2
aI3
aI4
aI-1
aI3
aI3
aa(lp1596
I2
aI3
aI4
aI-1
aI3
aI3
aI5
aI-2
aa(lp1597
I4
aI-1
aI3
aI3
aI5
aI-2
aI4
aI-1
aa(lp1598
I3
aI3
aI5
aI-2
aI4
aI-1
aI3
aI-2
aa(lp1599
I5
aI-2
aI4
aI-1
aI3
aI-2
aI2
aI-2
aa(lp1600
I4
aI-1
aI3
aI-2
aI2
aI-2
aI1
aI2
aa(lp1601
I3
aI-2
aI2
aI-2
aI1
aI2
aI2
aI2
aa(lp1602
I2
aI-2
aI1
aI2
aI2
aI2
aI3
aI1
aa(lp1603
I1
aI2
aI2
aI2
aI3
aI1
aI4
aI2
aa(lp1604
I2
aI2
aI3
aI1
aI4
aI2
aI1
aI2
aa(lp1605
I3
aI1
aI4
aI2
aI1
aI2
aI2
aI1
aa(lp1606
I4
aI2
aI1
aI2
aI2
aI1
aI3
aI2
aa(lp1607
I1
aI2
aI2
aI1
aI3
aI2
aI4
aI-5
aa(lp1608
I2
aI1
aI3
aI2
aI4
aI-5
aI2
aI3
aa(lp1609
I3
aI2
aI4
aI-5
aI2
aI3
aI4
aI-1
aa(lp1610
I4
aI-5
aI2
aI3
aI4
aI-1
aI3
aI-2
aa(lp1611
I2
aI3
aI4
aI-1
aI3
aI-2
aI2
aI-2
aa(lp1612
I4
aI-1
aI3
aI-2
aI2
aI-2
aI1
aI4
aa(lp1613
I3
aI-2
aI2
aI-2
aI1
aI4
aI3
aI3
aa(lp1614
I2
aI-2
aI1
aI4
aI3
aI3
aI5
aI-3
aa(lp1615
I1
aI4
aI3
aI3
aI5
aI-3
aI3
aI-4
aa(lp1616
I3
aI2
aI4
aI-2
aI3
aI-1
aI2
aI1
aa(lp1617
I4
aI-2
aI3
aI-1
aI2
aI1
aI3
aI-3
aa(lp1618
I3
aI-1
aI2
aI1
aI3
aI-3
aI1
aI0
aa(lp1619
I2
aI1
aI3
aI-3
aI1
aI0
aI1
aI3
aa(lp1620
I3
aI-3
aI1
aI0
aI1
aI3
aI3
aI0
aa(lp1621
I1
aI0
aI1
aI3
aI3
aI0
aI4
aI-2
aa(lp1622
I1
aI3
aI3
aI0
aI4
aI-2
aI3
aI-1
aa(lp1623
I3
aI0
aI4
aI-2
aI3
aI-1
aI2
aI1
aa(lp1624
I4
aI-2
aI3
aI-1
aI2
aI1
aI3
aI-3
aa(lp1625
I3
aI-1
aI2
aI1
aI3
aI-3
aI1
aI0
aa(lp1626
I2
aI1
aI3
aI-3
aI1
aI0
aI1
aI3
aa(lp1627
I3
aI-3
aI1
aI0
aI1
aI3
aI4
aI-1
aa(lp1628
I1
aI0
aI1
aI3
aI4
aI-1
aI3
aI3
aa(lp1629
I1
aI3
aI4
aI-1
aI3
aI3
aI5
aI-7
aa(lp1630
I4
aI-1
aI3
aI3
aI5
aI-7
aI1
aI0
aa(lp1631
I3
aI3
aI5
aI-7
aI1
aI0
aI2
aI2
aa(lp1632
I5
aI-7
aI1
aI0
aI2
aI2
aI3
aI-2
aa(lp1633
I1
aI0
aI2
aI2
aI3
aI-2
aI2
aI-1
aa(lp1634
I2
aI2
aI3
aI-2
aI2
aI-1
aI1
aI1
aa(lp1635
I3
aI-2
aI2
aI-1
aI1
aI1
aI2
aI4
aa(lp1636
I2
aI-1
aI1
aI1
aI2
aI4
aI4
aI-2
aa(lp1637
I1
aI1
aI2
aI4
aI4
aI-2
aI3
aI5
aa(lp1638
I2
aI4
aI4
aI-2
aI3
aI5
aI3
aI2
aa(lp1639
I4
aI-2
aI3
aI5
aI3
aI2
aI4
aI-2
aa(lp1640
I3
aI5
aI3
aI2
aI4
aI-2
aI3
aI-1
aa(lp1641
I3
aI2
aI4
aI-2
aI3
aI-1
aI2
aI1
aa(lp1642
I4
aI-2
aI3
aI-1
aI2
aI1
aI3
aI-3
aa(lp1643
I3
aI-1
aI2
aI1
aI3
aI-3
aI1
aI0
aa(lp1644
I2
aI1
aI3
aI-3
aI1
aI0
aI1
aI3
aa(lp1645
I3
aI-3
aI1
aI0
aI1
aI3
aI2
aI0
aa(lp1646
I1
aI0
aI1
aI3
aI2
aI0
aI4
aI-2
aa(lp1647
I1
aI3
aI2
aI0
aI4
aI-2
aI3
aI-1
aa(lp1648
I2
aI0
aI4
aI-2
aI3
aI-1
aI2
aI1
aa(lp1649
I4
aI-2
aI3
aI-1
aI2
aI1
aI3
aI-3
aa(lp1650
I3
aI-1
aI2
aI1
aI3
aI-3
aI1
aI0
aa(lp1651
I2
aI1
aI3
aI-3
aI1
aI0
aI1
aI3
aa(lp1652
I3
aI-3
aI1
aI0
aI1
aI3
aI3
aI-1
aa(lp1653
I4
aI0
aI3
aI2
aI4
aI-2
aI3
aI-3
aa(lp1654
I3
aI2
aI4
aI-2
aI3
aI-3
aI2
aI-4
aa(lp1655
I4
aI-2
aI3
aI-3
aI2
aI-4
aI1
aI12
aa(lp1656
I3
aI-3
aI2
aI-4
aI1
aI12
aI5
aI0
aa(lp1657
I2
aI-4
aI1
aI12
aI5
aI0
aI5
aI0
aa(lp1658
I1
aI12
aI5
aI0
aI5
aI0
aI5
aI0
aa(lp1659
I5
aI0
aI5
aI0
aI5
aI0
aI5
aI-3
aa(lp1660
I5
aI0
aI5
aI0
aI5
aI-3
aI3
aI-4
aa(lp1661
I5
aI0
aI5
aI-3
aI3
aI-4
aI2
aI4
aa(lp1662
I5
aI-3
aI3
aI-4
aI2
aI4
aI4
aI-2
aa(lp1663
I3
aI-4
aI2
aI4
aI4
aI-2
aI3
aI2
aa(lp1664
I2
aI4
aI4
aI-2
aI3
aI2
aI4
aI-2
aa(lp1665
I4
aI-2
aI3
aI2
aI4
aI-2
aI3
aI-3
aa(lp1666
I3
aI2
aI4
aI-2
aI3
aI-3
aI2
aI-4
aa(lp1667
I4
aI-2
aI3
aI-3
aI2
aI-4
aI1
aI12
aa(lp1668
I3
aI-3
aI2
aI-4
aI1
aI12
aI5
aI0
aa(lp1669
I2
aI-4
aI1
aI12
aI5
aI0
aI5
aI0
aa(lp1670
I1
aI12
aI5
aI0
aI5
aI0
aI5
aI0
aa(lp1671
I5
aI0
aI5
aI0
aI5
aI0
aI5
aI-3
aa(lp1672
I5
aI0
aI5
aI0
aI5
aI-3
aI3
aI-4
aa(lp1673
I5
aI0
aI5
aI-3
aI3
aI-4
aI2
aI-5
aa(lp1674
I5
aI-3
aI3
aI-4
aI2
aI-5
aI1
aI2
aa(lp1675
I3
aI-4
aI2
aI-5
aI1
aI2
aI3
aI-2
aa(lp1676
I2
aI-5
aI1
aI2
aI3
aI-2
aI2
aI-1
aa(lp1677
I1
aI2
aI3
aI-2
aI2
aI-1
aI1
aI1
aa(lp1678
I3
aI-2
aI2
aI-1
aI1
aI1
aI2
aI5
aa(lp1679
I2
aI-1
aI1
aI1
aI2
aI5
aI5
aI-8
aa(lp1680
I1
aI1
aI2
aI5
aI5
aI-8
aI2
aI-2
aa(lp1681
I2
aI5
aI5
aI-8
aI2
aI-2
aI1
aI2
aa(lp1682
I5
aI-8
aI2
aI-2
aI1
aI2
aI2
aI1
aa(lp1683
I2
aI-2
aI1
aI2
aI2
aI1
aI3
aI2
aa(lp1684
I1
aI2
aI2
aI1
aI3
aI2
aI1
aI1
aa(lp1685
I2
aI1
aI3
aI2
aI1
aI1
aI2
aI1
aa(lp1686
I3
aI2
aI1
aI1
aI2
aI1
aI3
aI-2
aa(lp1687
I2
aI0
aI2
aI0
aI2
aI0
aI2
aI-2
aa(lp1688
I2
aI0
aI2
aI0
aI2
aI0
aI2
aI-2
aa(lp1689
I1
aI5
aI2
aI4
aI3
aI3
aI5
aI-12
aa(lp1690
I2
aI4
aI3
aI3
aI5
aI-12
aI1
aI5
aa(lp1691
I3
aI3
aI5
aI-12
aI1
aI5
aI2
aI4
aa(lp1692
I5
aI-12
aI1
aI5
aI2
aI4
aI3
aI3
aa(lp1693
I1
aI5
aI2
aI4
aI3
aI3
aI5
aI-2
aa(lp1694
I2
aI4
aI3
aI3
aI5
aI-2
aI4
aI0
aa(lp1695
I3
aI3
aI5
aI-2
aI4
aI0
aI4
aI2
aa(lp1696
I5
aI-2
aI4
aI0
aI4
aI2
aI5
aI-2
aa(lp1697
I4
aI0
aI4
aI2
aI5
aI-2
aI4
aI-1
aa(lp1698
I4
aI2
aI5
aI-2
aI4
aI-1
aI3
aI-2
aa(lp1699
I5
aI-2
aI4
aI-1
aI3
aI-2
aI2
aI2
aa(lp1700
I4
aI-1
aI3
aI-2
aI2
aI2
aI3
aI3
aa(lp1701
I3
aI-2
aI2
aI2
aI3
aI3
aI5
aI-7
aa(lp1702
I2
aI2
aI3
aI3
aI5
aI-7
aI1
aI-5
aa(lp1703
I3
aI3
aI5
aI-7
aI1
aI-5
aI1
aI5
aa(lp1704
I5
aI-7
aI1
aI-5
aI1
aI5
aI2
aI4
aa(lp1705
I1
aI-5
aI1
aI5
aI2
aI4
aI3
aI3
aa(lp1706
I1
aI5
aI2
aI4
aI3
aI3
aI5
aI-12
aa(lp1707
I2
aI4
aI3
aI3
aI5
aI-12
aI1
aI5
aa(lp1708
I3
aI3
aI5
aI-12
aI1
aI5
aI2
aI4
aa(lp1709
I5
aI-12
aI1
aI5
aI2
aI4
aI3
aI3
aa(lp1710
I1
aI5
aI2
aI4
aI3
aI3
aI5
aI-5
aa(lp1711
I2
aI4
aI3
aI3
aI5
aI-5
aI1
aI9
aa(lp1712
I3
aI3
aI5
aI-5
aI1
aI9
aI5
aI-2
aa(lp1713
I5
aI-5
aI1
aI9
aI5
aI-2
aI3
aI-2
aa(lp1714
I1
aI9
aI5
aI-2
aI3
aI-2
aI2
aI-1
aa(lp1715
I5
aI-2
aI3
aI-2
aI2
aI-1
aI2
aI1
aa(lp1716
I3
aI-2
aI2
aI-1
aI2
aI1
aI3
aI2
aa(lp1717
I2
aI-1
aI2
aI1
aI3
aI2
aI4
aI-3
aa(lp1718
I2
aI1
aI3
aI2
aI4
aI-3
aI2
aI1
aa(lp1719
I3
aI2
aI4
aI-3
aI2
aI1
aI3
aI0
aa(lp1720
I4
aI-3
aI2
aI1
aI3
aI0
aI3
aI0
aa(lp1721
I2
aI1
aI3
aI0
aI3
aI0
aI3
aI-2
aa(lp1722
I3
aI0
aI3
aI0
aI3
aI-2
aI2
aI0
aa(lp1723
I3
aI0
aI3
aI-2
aI2
aI0
aI2
aI2
aa(lp1724
I3
aI-2
aI2
aI0
aI2
aI2
aI3
aI-2
aa(lp1725
I2
aI0
aI2
aI2
aI3
aI-2
aI2
aI-1
aa(lp1726
I2
aI2
aI3
aI-2
aI2
aI-1
aI1
aI-2
aa(lp1727
I3
aI-2
aI2
aI-1
aI1
aI-2
aI2
aI2
aa(lp1728
I2
aI-1
aI1
aI-2
aI2
aI2
aI3
aI3
aa(lp1729
I1
aI-2
aI2
aI2
aI3
aI3
aI5
aI-3
aa(lp1730
I2
aI2
aI3
aI3
aI5
aI-3
aI3
aI-4
aa(lp1731
I3
aI3
aI5
aI-3
aI3
aI-4
aI2
aI-1
aa(lp1732
I5
aI-3
aI3
aI-4
aI2
aI-1
aI1
aI0
aa(lp1733
I3
aI-4
aI2
aI-1
aI1
aI0
aI1
aI3
aa(lp1734
I2
aI-1
aI1
aI0
aI1
aI3
aI3
aI-2
aa(lp1735
I1
aI0
aI1
aI3
aI3
aI-2
aI2
aI-1
aa(lp1736
I1
aI3
aI3
aI-2
aI2
aI-1
aI1
aI1
aa(lp1737
I3
aI-2
aI2
aI-1
aI1
aI1
aI2
aI2
aa(lp1738
I2
aI-1
aI1
aI1
aI2
aI2
aI3
aI-7
aa(lp1739
I1
aI1
aI2
aI2
aI3
aI-7
aI1
aI0
aa(lp1740
I2
aI2
aI3
aI-7
aI1
aI0
aI1
aI0
aa(lp1741
I3
aI-7
aI1
aI0
aI1
aI0
aI1
aI5
aa(lp1742
I1
aI0
aI1
aI0
aI1
aI5
aI2
aI4
aa(lp1743
I1
aI0
aI1
aI5
aI2
aI4
aI3
aI3
aa(lp1744
I1
aI5
aI2
aI4
aI3
aI3
aI5
aI-10
aa(lp1745
I2
aI4
aI3
aI3
aI5
aI-10
aI1
aI3
aa(lp1746
I3
aI3
aI5
aI-10
aI1
aI3
aI2
aI5
aa(lp1747
I5
aI-10
aI1
aI3
aI2
aI5
aI3
aI4
aa(lp1748
I1
aI3
aI2
aI5
aI3
aI4
aI5
aI-2
aa(lp1749
I2
aI5
aI3
aI4
aI5
aI-2
aI1
aI5
aa(lp1750
I3
aI4
aI5
aI-2
aI1
aI5
aI5
aI-1
aa(lp1751
I5
aI-2
aI1
aI5
aI5
aI-1
aI4
aI-2
aa(lp1752
I1
aI5
aI5
aI-1
aI4
aI-2
aI3
aI-2
aa(lp1753
I5
aI-1
aI4
aI-2
aI3
aI-2
aI2
aI-2
aa(lp1754
I4
aI-2
aI3
aI-2
aI2
aI-2
aI1
aI-1
aa(lp1755
I3
aI-2
aI2
aI-2
aI1
aI-1
aI3
aI-2
aa(lp1756
I2
aI-2
aI1
aI-1
aI3
aI-2
aI2
aI-2
aa(lp1757
I1
aI-1
aI3
aI-2
aI2
aI-2
aI1
aI0
aa(lp1758
I3
aI-2
aI2
aI-2
aI1
aI0
aI1
aI0
aa(lp1759
I1
aI4
aI3
aI3
aI5
aI-7
aI1
aI4
aa(lp1760
I3
aI3
aI5
aI-7
aI1
aI4
aI3
aI3
aa(lp1761
I5
aI-7
aI1
aI4
aI3
aI3
aI5
aI-7
aa(lp1762
I1
aI4
aI3
aI3
aI5
aI-7
aI1
aI4
aa(lp1763
I3
aI3
aI5
aI-7
aI1
aI4
aI3
aI3
aa(lp1764
I5
aI-7
aI1
aI4
aI3
aI3
aI5
aI-7
aa(lp1765
I1
aI4
aI3
aI3
aI5
aI-7
aI1
aI4
aa(lp1766
I3
aI3
aI5
aI-7
aI1
aI4
aI3
aI3
aa(lp1767
I5
aI-7
aI1
aI4
aI3
aI3
aI5
aI-7
aa(lp1768
I1
aI4
aI3
aI3
aI5
aI-7
aI1
aI4
aa(lp1769
I3
aI3
aI5
aI-7
aI1
aI4
aI3
aI3
aa(lp1770
I5
aI-7
aI1
aI4
aI3
aI3
aI5
aI-7
aa(lp1771
I1
aI4
aI3
aI3
aI5
aI-7
aI1
aI4
aa(lp1772
I3
aI3
aI5
aI-7
aI1
aI4
aI3
aI3
aa(lp1773
I5
aI-7
aI1
aI4
aI3
aI3
aI5
aI-7
aa(lp1774
I1
aI4
aI3
aI3
aI5
aI-7
aI1
aI4
aa(lp1775
I3
aI3
aI5
aI-7
aI1
aI4
aI3
aI3
aa(lp1776
I5
aI-7
aI1
aI4
aI3
aI3
aI5
aI-7
aa(lp1777
I1
aI4
aI3
aI3
aI5
aI-7
aI1
aI4
aa(lp1778
I3
aI3
aI5
aI-7
aI1
aI4
aI3
aI3
aa(lp1779
I5
aI-7
aI1
aI4
aI3
aI3
aI5
aI-5
aa(lp1780
I1
aI4
aI3
aI3
aI5
aI-5
aI2
aI3
aa(lp1781
I3
aI3
aI5
aI-5
aI2
aI3
aI4
aI2
aa(lp1782
I5
aI-5
aI2
aI3
aI4
aI2
aI5
aI-5
aa(lp1783
I2
aI3
aI4
aI2
aI5
aI-5
aI2
aI3
aa(lp1784
I4
aI2
aI5
aI-5
aI2
aI3
aI4
aI2
aa(lp1785
I5
aI-5
aI2
aI3
aI4
aI2
aI5
aI-5
aa(lp1786
I2
aI3
aI4
aI2
aI5
aI-5
aI2
aI3
aa(lp1787
I4
aI2
aI5
aI-5
aI2
aI3
aI4
aI2
aa(lp1788
I5
aI-5
aI2
aI3
aI4
aI2
aI5
aI-5
aa(lp1789
I2
aI3
aI4
aI2
aI5
aI-5
aI2
aI3
aa(lp1790
I4
aI2
aI5
aI-5
aI2
aI3
aI4
aI2
aa(lp1791
I5
aI-5
aI2
aI3
aI4
aI2
aI5
aI-3
aa(lp1792
I2
aI3
aI4
aI2
aI5
aI-3
aI3
aI1
aa(lp1793
I4
aI2
aI5
aI-3
aI3
aI1
aI4
aI2
aa(lp1794
I5
aI-3
aI3
aI1
aI4
aI2
aI5
aI-2
aa(lp1795
I3
aI1
aI4
aI2
aI5
aI-2
aI4
aI-1
aa(lp1796
I4
aI2
aI5
aI-2
aI4
aI-1
aI3
aI-2
aa(lp1797
I5
aI-2
aI4
aI-1
aI3
aI-2
aI2
aI-2
aa(lp1798
I4
aI-1
aI3
aI-2
aI2
aI-2
aI1
aI7
aa(lp1799
I3
aI-2
aI2
aI-2
aI1
aI7
aI5
aI-3
aa(lp1800
I2
aI-2
aI1
aI7
aI5
aI-3
aI3
aI-4
aa(lp1801
I1
aI7
aI5
aI-3
aI3
aI-4
aI1
aI7
aa(lp1802
I5
aI-3
aI3
aI-4
aI1
aI7
aI5
aI-3
aa(lp1803
I3
aI-4
aI1
aI7
aI5
aI-3
aI3
aI-4
aa(lp1804
I1
aI7
aI5
aI-3
aI3
aI-4
aI1
aI7
aa(lp1805
I5
aI-3
aI3
aI-4
aI1
aI7
aI5
aI-3
aa(lp1806
I3
aI-4
aI1
aI7
aI5
aI-3
aI3
aI-4
aa(lp1807
I1
aI7
aI5
aI-3
aI3
aI-4
aI1
aI7
aa(lp1808
I5
aI-3
aI3
aI-4
aI1
aI7
aI5
aI-3
aa(lp1809
I3
aI-4
aI1
aI7
aI5
aI-3
aI3
aI-4
aa(lp1810
I1
aI7
aI5
aI-3
aI3
aI-4
aI1
aI7
aa(lp1811
I5
aI-3
aI3
aI-4
aI1
aI7
aI5
aI-3
aa(lp1812
I3
aI-4
aI1
aI7
aI5
aI-3
aI3
aI-4
aa(lp1813
I1
aI7
aI5
aI-3
aI3
aI-4
aI1
aI7
aa(lp1814
I5
aI-3
aI3
aI-4
aI1
aI7
aI5
aI-3
aa(lp1815
I3
aI-4
aI1
aI7
aI5
aI-3
aI3
aI-4
aa(lp1816
I1
aI7
aI5
aI-3
aI3
aI-4
aI1
aI7
aa(lp1817
I5
aI-3
aI3
aI-4
aI1
aI7
aI5
aI-3
aa(lp1818
I3
aI-4
aI1
aI7
aI5
aI-3
aI3
aI-4
aa(lp1819
I1
aI7
aI5
aI-3
aI3
aI-4
aI1
aI7
aa(lp1820
I5
aI-3
aI3
aI-4
aI1
aI7
aI5
aI-3
aa(lp1821
I3
aI-4
aI1
aI7
aI5
aI-3
aI3
aI-4
aa(lp1822
I1
aI7
aI5
aI-3
aI3
aI-4
aI1
aI7
aa(lp1823
I5
aI-3
aI3
aI-4
aI1
aI7
aI5
aI-2
aa(lp1824
I3
aI-4
aI1
aI7
aI5
aI-2
aI4
aI-3
aa(lp1825
I1
aI7
aI5
aI-2
aI4
aI-3
aI2
aI5
aa(lp1826
I5
aI-2
aI4
aI-3
aI2
aI5
aI5
aI-2
aa(lp1827
I4
aI-3
aI2
aI5
aI5
aI-2
aI4
aI-3
aa(lp1828
I2
aI5
aI5
aI-2
aI4
aI-3
aI2
aI5
aa(lp1829
I5
aI-2
aI4
aI-3
aI2
aI5
aI5
aI-2
aa(lp1830
I4
aI-3
aI2
aI5
aI5
aI-2
aI4
aI-3
aa(lp1831
I2
aI5
aI5
aI-2
aI4
aI-3
aI2
aI5
aa(lp1832
I5
aI-2
aI4
aI-3
aI2
aI5
aI5
aI-2
aa(lp1833
I4
aI-3
aI2
aI5
aI5
aI-2
aI4
aI-3
aa(lp1834
I2
aI5
aI5
aI-2
aI4
aI-3
aI2
aI-2
aa(lp1835
I5
aI-2
aI4
aI-3
aI2
aI-2
aI1
aI7
aa(lp1836
I4
aI-3
aI2
aI-2
aI1
aI7
aI5
aI-3
aa(lp1837
I2
aI-2
aI1
aI7
aI5
aI-3
aI3
aI-4
aa(lp1838
I1
aI7
aI5
aI-3
aI3
aI-4
aI1
aI7
aa(lp1839
I5
aI-3
aI3
aI-4
aI1
aI7
aI5
aI-3
aa(lp1840
I3
aI-4
aI1
aI7
aI5
aI-3
aI3
aI-4
aa(lp1841
I1
aI7
aI5
aI-3
aI3
aI-4
aI1
aI5
aa(lp1842
I5
aI-3
aI3
aI-4
aI1
aI5
aI4
aI-3
aa(lp1843
I3
aI-4
aI1
aI5
aI4
aI-3
aI2
aI5
aa(lp1844
I1
aI5
aI4
aI-3
aI2
aI5
aI5
aI-2
aa(lp1845
I4
aI-3
aI2
aI5
aI5
aI-2
aI4
aI-3
aa(lp1846
I2
aI5
aI5
aI-2
aI4
aI-3
aI2
aI5
aa(lp1847
I5
aI-2
aI4
aI-3
aI2
aI5
aI5
aI-2
aa(lp1848
I4
aI-3
aI2
aI5
aI5
aI-2
aI4
aI-3
aa(lp1849
I2
aI5
aI5
aI-2
aI4
aI-3
aI2
aI2
aa(lp1850
I5
aI-2
aI4
aI-3
aI2
aI2
aI3
aI-4
aa(lp1851
I4
aI-3
aI2
aI2
aI3
aI-4
aI1
aI7
aa(lp1852
I2
aI2
aI3
aI-4
aI1
aI7
aI5
aI-3
aa(lp1853
I3
aI-4
aI1
aI7
aI5
aI-3
aI3
aI-4
aa(lp1854
I1
aI7
aI5
aI-3
aI3
aI-4
aI1
aI7
aa(lp1855
I5
aI-3
aI3
aI-4
aI1
aI7
aI5
aI-3
aa(lp1856
I3
aI-4
aI1
aI7
aI5
aI-3
aI3
aI-4
aa(lp1857
I1
aI7
aI5
aI-3
aI3
aI-4
aI1
aI5
aa(lp1858
I5
aI-3
aI3
aI-4
aI1
aI5
aI4
aI-3
aa(lp1859
I3
aI-4
aI1
aI5
aI4
aI-3
aI2
aI5
aa(lp1860
I1
aI5
aI4
aI-3
aI2
aI5
aI5
aI-2
aa(lp1861
I4
aI-3
aI2
aI5
aI5
aI-2
aI4
aI-3
aa(lp1862
I2
aI5
aI5
aI-2
aI4
aI-3
aI2
aI5
aa(lp1863
I5
aI-2
aI4
aI-3
aI2
aI5
aI5
aI-2
aa(lp1864
I4
aI-3
aI2
aI5
aI5
aI-2
aI4
aI-3
aa(lp1865
I2
aI5
aI5
aI-2
aI4
aI-3
aI2
aI2
aa(lp1866
I5
aI-2
aI4
aI-3
aI2
aI2
aI3
aI-4
aa(lp1867
I4
aI-3
aI2
aI2
aI3
aI-4
aI1
aI7
aa(lp1868
I2
aI2
aI3
aI-4
aI1
aI7
aI5
aI-3
aa(lp1869
I3
aI-4
aI1
aI7
aI5
aI-3
aI3
aI-4
aa(lp1870
I1
aI7
aI5
aI-3
aI3
aI-4
aI1
aI7
aa(lp1871
I5
aI-3
aI3
aI-4
aI1
aI7
aI5
aI-3
aa(lp1872
I3
aI-4
aI1
aI7
aI5
aI-3
aI3
aI-4
aa(lp1873
I1
aI7
aI5
aI-3
aI3
aI-4
aI1
aI7
aa(lp1874
I5
aI-3
aI3
aI-4
aI1
aI7
aI5
aI-3
aa(lp1875
I3
aI-4
aI1
aI7
aI5
aI-3
aI3
aI-4
aa(lp1876
I1
aI7
aI5
aI-3
aI3
aI-4
aI1
aI7
aa(lp1877
I5
aI-3
aI3
aI-4
aI1
aI7
aI5
aI-3
aa(lp1878
I3
aI-4
aI1
aI7
aI5
aI-3
aI3
aI-4
aa(lp1879
I1
aI7
aI5
aI-3
aI3
aI-4
aI1
aI7
aa(lp1880
I5
aI-3
aI3
aI-4
aI1
aI7
aI5
aI-3
aa(lp1881
I3
aI-4
aI1
aI7
aI5
aI-3
aI3
aI-4
aa(lp1882
I1
aI7
aI5
aI-3
aI3
aI-4
aI1
aI7
aa(lp1883
I5
aI-3
aI3
aI-4
aI1
aI7
aI5
aI-3
aa(lp1884
I3
aI-4
aI1
aI7
aI5
aI-3
aI3
aI-4
aa(lp1885
I1
aI7
aI5
aI-3
aI3
aI-4
aI1
aI7
aa(lp1886
I5
aI-3
aI3
aI-4
aI1
aI7
aI5
aI-3
aa(lp1887
I3
aI-4
aI1
aI7
aI5
aI-3
aI3
aI-4
aa(lp1888
I1
aI7
aI5
aI-3
aI3
aI-4
aI1
aI7
aa(lp1889
I5
aI-3
aI3
aI-4
aI1
aI7
aI5
aI-3
aa(lp1890
I3
aI-4
aI1
aI7
aI5
aI-3
aI3
aI-4
aa(lp1891
I1
aI7
aI5
aI-3
aI3
aI-4
aI1
aI7
aa(lp1892
I5
aI-3
aI3
aI-4
aI1
aI7
aI5
aI-3
aa(lp1893
I3
aI-4
aI1
aI7
aI5
aI-3
aI3
aI-4
aa(lp1894
I1
aI7
aI5
aI-3
aI3
aI-4
aI1
aI7
aa(lp1895
I5
aI-3
aI3
aI-4
aI1
aI7
aI5
aI-3
aa(lp1896
I3
aI-4
aI1
aI7
aI5
aI-3
aI3
aI-2
aa(lp1897
I1
aI7
aI5
aI-3
aI3
aI-2
aI2
aI5
aa(lp1898
I5
aI-3
aI3
aI-2
aI2
aI5
aI5
aI-2
aa(lp1899
I3
aI-2
aI2
aI5
aI5
aI-2
aI4
aI-3
aa(lp1900
I2
aI5
aI5
aI-2
aI4
aI-3
aI2
aI5
aa(lp1901
I5
aI-2
aI4
aI-3
aI2
aI5
aI5
aI-2
aa(lp1902
I4
aI-3
aI2
aI5
aI5
aI-2
aI4
aI-3
aa(lp1903
I2
aI5
aI5
aI-2
aI4
aI-3
aI2
aI2
aa(lp1904
I5
aI-2
aI4
aI-3
aI2
aI2
aI3
aI-2
aa(lp1905
I4
aI-3
aI2
aI2
aI3
aI-2
aI2
aI3
aa(lp1906
I2
aI2
aI3
aI-2
aI2
aI3
aI4
aI-1
aa(lp1907
I3
aI-2
aI2
aI3
aI4
aI-1
aI3
aI-2
aa(lp1908
I2
aI3
aI4
aI-1
aI3
aI-2
aI2
aI-2
aa(lp1909
I4
aI-1
aI3
aI-2
aI2
aI-2
aI1
aI7
aa(lp1910
I3
aI-2
aI2
aI-2
aI1
aI7
aI5
aI-3
aa(lp1911
I2
aI-2
aI1
aI7
aI5
aI-3
aI3
aI-4
aa(lp1912
I1
aI7
aI5
aI-3
aI3
aI-4
aI1
aI7
aa(lp1913
I5
aI-3
aI3
aI-4
aI1
aI7
aI5
aI-3
aa(lp1914
I3
aI-4
aI1
aI7
aI5
aI-3
aI3
aI-4
aa(lp1915
I1
aI4
aI3
aI-4
aI1
aI4
aI3
aI3
aa(lp1916
I3
aI-4
aI1
aI4
aI3
aI3
aI5
aI-3
aa(lp1917
I1
aI4
aI3
aI3
aI5
aI-3
aI3
aI-4
aa(lp1918
I3
aI3
aI5
aI-3
aI3
aI-4
aI1
aI4
aa(lp1919
I5
aI-3
aI3
aI-4
aI1
aI4
aI3
aI-2
aa(lp1920
I3
aI-4
aI1
aI4
aI3
aI-2
aI2
aI5
aa(lp1921
I1
aI4
aI3
aI-2
aI2
aI5
aI5
aI-2
aa(lp1922
I3
aI-2
aI2
aI5
aI5
aI-2
aI4
aI-3
aa(lp1923
I2
aI5
aI5
aI-2
aI4
aI-3
aI2
aI2
aa(lp1924
I5
aI-2
aI4
aI-3
aI2
aI2
aI3
aI-4
aa(lp1925
I4
aI-3
aI2
aI2
aI3
aI-4
aI1
aI7
aa(lp1926
I2
aI2
aI3
aI-4
aI1
aI7
aI5
aI-3
aa(lp1927
I3
aI-4
aI1
aI7
aI5
aI-3
aI3
aI-4
aa(lp1928
I1
aI7
aI5
aI-3
aI3
aI-4
aI1
aI4
aa(lp1929
I5
aI-3
aI3
aI-4
aI1
aI4
aI3
aI-4
aa(lp1930
I3
aI-4
aI1
aI4
aI3
aI-4
aI1
aI4
aa(lp1931
I1
aI4
aI3
aI-4
aI1
aI4
aI3
aI3
aa(lp1932
I3
aI-4
aI1
aI4
aI3
aI3
aI5
aI-3
aa(lp1933
I1
aI4
aI3
aI3
aI5
aI-3
aI3
aI-4
aa(lp1934
I3
aI3
aI5
aI-3
aI3
aI-4
aI1
aI4
aa(lp1935
I5
aI-3
aI3
aI-4
aI1
aI4
aI3
aI-2
aa(lp1936
I3
aI-4
aI1
aI4
aI3
aI-2
aI2
aI5
aa(lp1937
I1
aI4
aI3
aI-2
aI2
aI5
aI5
aI-2
aa(lp1938
I3
aI-2
aI2
aI5
aI5
aI-2
aI4
aI-3
aa(lp1939
I2
aI5
aI5
aI-2
aI4
aI-3
aI2
aI-2
aa(lp1940
I5
aI-2
aI4
aI-3
aI2
aI-2
aI1
aI4
aa(lp1941
I4
aI-3
aI2
aI-2
aI1
aI4
aI3
aI-4
aa(lp1942
I2
aI-2
aI1
aI4
aI3
aI-4
aI1
aI2
aa(lp1943
I1
aI4
aI3
aI-4
aI1
aI2
aI2
aI2
aa(lp1944
I3
aI-4
aI1
aI2
aI2
aI2
aI3
aI1
aa(lp1945
I1
aI2
aI2
aI2
aI3
aI1
aI4
aI-3
aa(lp1946
I2
aI2
aI3
aI1
aI4
aI-3
aI2
aI2
aa(lp1947
I3
aI1
aI4
aI-3
aI2
aI2
aI3
aI3
aa(lp1948
I4
aI-3
aI2
aI2
aI3
aI3
aI5
aI-3
aa(lp1949
I2
aI2
aI3
aI3
aI5
aI-3
aI3
aI-4
aa(lp1950
I3
aI3
aI5
aI-3
aI3
aI-4
aI1
aI2
aa(lp1951
I5
aI-3
aI3
aI-4
aI1
aI2
aI2
aI2
aa(lp1952
I3
aI-4
aI1
aI2
aI2
aI2
aI3
aI1
aa(lp1953
I1
aI2
aI2
aI2
aI3
aI1
aI4
aI-3
aa(lp1954
I2
aI2
aI3
aI1
aI4
aI-3
aI2
aI2
aa(lp1955
I3
aI1
aI4
aI-3
aI2
aI2
aI3
aI3
aa(lp1956
I4
aI-3
aI2
aI2
aI3
aI3
aI5
aI-2
aa(lp1957
I2
aI2
aI3
aI3
aI5
aI-2
aI4
aI-3
aa(lp1958
I3
aI3
aI5
aI-2
aI4
aI-3
aI2
aI-2
aa(lp1959
I5
aI-2
aI4
aI-3
aI2
aI-2
aI1
aI4
aa(lp1960
I4
aI-3
aI2
aI-2
aI1
aI4
aI3
aI-4
aa(lp1961
I2
aI-2
aI1
aI4
aI3
aI-4
aI1
aI4
aa(lp1962
I1
aI4
aI3
aI-4
aI1
aI4
aI3
aI3
aa(lp1963
I3
aI-4
aI1
aI4
aI3
aI3
aI5
aI-3
aa(lp1964
I1
aI4
aI3
aI3
aI5
aI-3
aI3
aI-4
aa(lp1965
I3
aI3
aI5
aI-3
aI3
aI-4
aI1
aI4
aa(lp1966
I5
aI-3
aI3
aI-4
aI1
aI4
aI3
aI-2
aa(lp1967
I3
aI-4
aI1
aI4
aI3
aI-2
aI2
aI5
aa(lp1968
I1
aI4
aI3
aI-2
aI2
aI5
aI5
aI-2
aa(lp1969
I3
aI-2
aI2
aI5
aI5
aI-2
aI4
aI-3
aa(lp1970
I2
aI5
aI5
aI-2
aI4
aI-3
aI2
aI-2
aa(lp1971
I5
aI-2
aI4
aI-3
aI2
aI-2
aI1
aI4
aa(lp1972
I4
aI-3
aI2
aI-2
aI1
aI4
aI3
aI-4
aa(lp1973
I2
aI2
aI1
aI2
aI2
aI1
aI3
aI2
aa(lp1974
I1
aI2
aI2
aI1
aI3
aI2
aI1
aI2
aa(lp1975
I2
aI1
aI3
aI2
aI1
aI2
aI2
aI2
aa(lp1976
I3
aI2
aI1
aI2
aI2
aI2
aI3
aI1
aa(lp1977
I1
aI2
aI2
aI2
aI3
aI1
aI5
aI-5
aa(lp1978
I2
aI2
aI3
aI1
aI5
aI-5
aI1
aI2
aa(lp1979
I3
aI1
aI5
aI-5
aI1
aI2
aI2
aI2
aa(lp1980
I5
aI-5
aI1
aI2
aI2
aI2
aI3
aI1
aa(lp1981
I1
aI2
aI2
aI2
aI3
aI1
aI4
aI2
aa(lp1982
I2
aI2
aI3
aI1
aI4
aI2
aI1
aI2
aa(lp1983
I3
aI1
aI4
aI2
aI1
aI2
aI2
aI1
aa(lp1984
I4
aI2
aI1
aI2
aI2
aI1
aI3
aI2
aa(lp1985
I1
aI2
aI2
aI1
aI3
aI2
aI4
aI0
aa(lp1986
I2
aI1
aI3
aI2
aI4
aI0
aI4
aI-3
aa(lp1987
I3
aI2
aI4
aI0
aI4
aI-3
aI2
aI3
aa(lp1988
I4
aI0
aI4
aI-3
aI2
aI3
aI4
aI-2
aa(lp1989
I4
aI-3
aI2
aI3
aI4
aI-2
aI3
aI-1
aa(lp1990
I2
aI3
aI4
aI-2
aI3
aI-1
aI2
aI-2
aa(lp1991
I4
aI-2
aI3
aI-1
aI2
aI-2
aI1
aI0
aa(lp1992
I3
aI-1
aI2
aI-2
aI1
aI0
aI1
aI0
aa(lp1993
I2
aI-2
aI1
aI0
aI1
aI0
aI1
aI0
aa(lp1994
I1
aI0
aI1
aI0
aI1
aI0
aI1
aI3
aa(lp1995
I1
aI0
aI1
aI0
aI1
aI3
aI3
aI-1
aa(lp1996
I1
aI0
aI1
aI3
aI3
aI-1
aI2
aI-2
aa(lp1997
I1
aI3
aI3
aI-1
aI2
aI-2
aI1
aI-2
aa(lp1998
I3
aI-1
aI2
aI-2
aI1
aI-2
aI2
aI0
aa(lp1999
I2
aI-2
aI1
aI-2
aI2
aI0
aI2
aI0
aa(lp2000
I1
aI-2
aI2
aI0
aI2
aI0
aI2
aI-12
aa(lp2001
I2
aI0
aI2
aI0
aI2
aI-12
aI2
aI2
aa(lp2002
I2
aI0
aI2
aI-12
aI2
aI2
aI1
aI2
aa(lp2003
I2
aI-12
aI2
aI2
aI1
aI2
aI2
aI1
aa(lp2004
I2
aI2
aI1
aI2
aI2
aI1
aI3
aI2
aa(lp2005
I1
aI2
aI2
aI1
aI3
aI2
aI1
aI2
aa(lp2006
I2
aI1
aI3
aI2
aI1
aI2
aI2
aI2
aa(lp2007
I3
aI2
aI1
aI2
aI2
aI2
aI3
aI1
aa(lp2008
I1
aI2
aI2
aI2
aI3
aI1
aI5
aI-5
aa(lp2009
I2
aI2
aI3
aI1
aI5
aI-5
aI1
aI2
aa(lp2010
I3
aI1
aI5
aI-5
aI1
aI2
aI2
aI2
aa(lp2011
I5
aI-5
aI1
aI2
aI2
aI2
aI3
aI1
aa(lp2012
I1
aI2
aI2
aI2
aI3
aI1
aI4
aI2
aa(lp2013
I2
aI2
aI3
aI1
aI4
aI2
aI1
aI2
aa(lp2014
I3
aI1
aI4
aI2
aI1
aI2
aI2
aI1
aa(lp2015
I4
aI2
aI1
aI2
aI2
aI1
aI3
aI2
aa(lp2016
I1
aI2
aI2
aI1
aI3
aI2
aI4
aI0
aa(lp2017
I2
aI1
aI3
aI2
aI4
aI0
aI4
aI-3
aa(lp2018
I3
aI2
aI4
aI0
aI4
aI-3
aI2
aI3
aa(lp2019
I4
aI0
aI4
aI-3
aI2
aI3
aI4
aI-1
aa(lp2020
I4
aI-3
aI2
aI3
aI4
aI-1
aI3
aI-2
aa(lp2021
I2
aI3
aI4
aI-1
aI3
aI-2
aI2
aI-2
aa(lp2022
I4
aI-1
aI3
aI-2
aI2
aI-2
aI1
aI9
aa(lp2023
I3
aI-2
aI2
aI-2
aI1
aI9
aI3
aI3
aa(lp2024
I2
aI-2
aI1
aI9
aI3
aI3
aI5
aI-2
aa(lp2025
I1
aI9
aI3
aI3
aI5
aI-2
aI4
aI-1
aa(lp2026
I3
aI3
aI5
aI-2
aI4
aI-1
aI3
aI-2
aa(lp2027
I5
aI-2
aI4
aI-1
aI3
aI-2
aI2
aI-2
aa(lp2028
I4
aI-1
aI3
aI-2
aI2
aI-2
aI1
aI-1
aa(lp2029
I3
aI-2
aI2
aI-2
aI1
aI-1
aI3
aI-2
aa(lp2030
I2
aI-2
aI1
aI-1
aI3
aI-2
aI2
aI-2
aa(lp2031
I1
aI-1
aI3
aI-2
aI2
aI-2
aI1
aI-2
aa(lp2032
I3
aI-2
aI2
aI-2
aI1
aI-2
aI4
aI-1
aa(lp2033
I2
aI-2
aI1
aI-2
aI4
aI-1
aI3
aI-2
aa(lp2034
I1
aI-2
aI4
aI-1
aI3
aI-2
aI2
aI-2
aa(lp2035
I4
aI-1
aI3
aI-2
aI2
aI-2
aI1
aI12
aa(lp2036
I3
aI-2
aI2
aI-2
aI1
aI12
aI5
aI-12
aa(lp2037
I2
aI-2
aI1
aI12
aI5
aI-12
aI1
aI12
aa(lp2038
I1
aI12
aI5
aI-12
aI1
aI12
aI1
aI2
aa(lp2039
I5
aI-12
aI1
aI12
aI1
aI2
aI2
aI2
aa(lp2040
I1
aI12
aI1
aI2
aI2
aI2
aI3
aI1
aa(lp2041
I1
aI2
aI2
aI2
aI3
aI1
aI4
aI2
aa(lp2042
I2
aI2
aI3
aI1
aI4
aI2
aI1
aI2
aa(lp2043
I3
aI1
aI4
aI2
aI1
aI2
aI2
aI1
aa(lp2044
I4
aI2
aI1
aI2
aI2
aI1
aI3
aI2
aa(lp2045
I1
aI2
aI2
aI1
aI3
aI2
aI4
aI0
aa(lp2046
I2
aI1
aI3
aI2
aI4
aI0
aI4
aI0
aa(lp2047
I3
aI2
aI4
aI0
aI4
aI0
aI4
aI0
aa(lp2048
I4
aI0
aI4
aI0
aI4
aI0
aI4
aI0
aa(lp2049
I4
aI0
aI4
aI0
aI4
aI0
aI4
aI-2
aa(lp2050
I4
aI0
aI4
aI0
aI4
aI-2
aI3
aI-1
aa(lp2051
I4
aI0
aI4
aI-2
aI3
aI-1
aI2
aI-2
aa(lp2052
I4
aI-2
aI3
aI-1
aI2
aI-2
aI1
aI-2
aa(lp2053
I3
aI-1
aI2
aI-2
aI1
aI-2
aI2
aI2
aa(lp2054
I2
aI-2
aI1
aI-2
aI2
aI2
aI3
aI2
aa(lp2055
I1
aI-2
aI2
aI2
aI3
aI2
aI4
aI-4
aa(lp2056
I2
aI2
aI3
aI2
aI4
aI-4
aI2
aI2
aa(lp2057
I3
aI2
aI4
aI-4
aI2
aI2
aI5
aI-2
aa(lp2058
I4
aI-4
aI2
aI2
aI5
aI-2
aI4
aI-1
aa(lp2059
I2
aI2
aI5
aI-2
aI4
aI-1
aI3
aI-2
aa(lp2060
I5
aI-2
aI4
aI-1
aI3
aI-2
aI2
aI-2
aa(lp2061
I4
aI-1
aI3
aI-2
aI2
aI-2
aI1
aI-2
aa(lp2062
I3
aI-2
aI2
aI-2
aI1
aI-2
aI3
aI-1
aa(lp2063
I2
aI-2
aI1
aI-2
aI3
aI-1
aI2
aI-2
aa(lp2064
I1
aI-2
aI3
aI-1
aI2
aI-2
aI1
aI-2
aa(lp2065
I3
aI-1
aI2
aI-2
aI1
aI-2
aI3
aI2
aa(lp2066
I2
aI-2
aI1
aI-2
aI3
aI2
aI4
aI2
aa(lp2067
I1
aI-2
aI3
aI2
aI4
aI2
aI5
aI-4
aa(lp2068
I3
aI2
aI4
aI2
aI5
aI-4
aI3
aI-5
aa(lp2069
I4
aI2
aI5
aI-4
aI3
aI-5
aI1
aI12
aa(lp2070
I5
aI-4
aI3
aI-5
aI1
aI12
aI1
aI2
aa(lp2071
I3
aI-5
aI1
aI12
aI1
aI2
aI2
aI2
aa(lp2072
I1
aI12
aI1
aI2
aI2
aI2
aI3
aI1
aa(lp2073
I1
aI2
aI2
aI2
aI3
aI1
aI4
aI2
aa(lp2074
I2
aI2
aI3
aI1
aI4
aI2
aI1
aI2
aa(lp2075
I3
aI1
aI4
aI2
aI1
aI2
aI2
aI1
aa(lp2076
I4
aI2
aI1
aI2
aI2
aI1
aI3
aI2
aa(lp2077
I1
aI2
aI2
aI1
aI3
aI2
aI4
aI0
aa(lp2078
I2
aI1
aI3
aI2
aI4
aI0
aI4
aI0
aa(lp2079
I3
aI2
aI4
aI0
aI4
aI0
aI4
aI0
aa(lp2080
I4
aI0
aI4
aI0
aI4
aI0
aI4
aI0
aa(lp2081
I4
aI0
aI4
aI0
aI4
aI0
aI4
aI-2
aa(lp2082
I4
aI0
aI4
aI0
aI4
aI-2
aI3
aI-1
aa(lp2083
I4
aI0
aI4
aI-2
aI3
aI-1
aI2
aI-2
aa(lp2084
I4
aI-2
aI3
aI-1
aI2
aI-2
aI1
aI-2
aa(lp2085
I3
aI-1
aI2
aI-2
aI1
aI-2
aI2
aI2
aa(lp2086
I2
aI-2
aI1
aI-2
aI2
aI2
aI3
aI2
aa(lp2087
I1
aI-2
aI2
aI2
aI3
aI2
aI4
aI-4
aa(lp2088
I2
aI2
aI3
aI2
aI4
aI-4
aI2
aI2
aa(lp2089
I3
aI2
aI4
aI-4
aI2
aI2
aI1
aI2
aa(lp2090
I4
aI-4
aI2
aI2
aI1
aI2
aI2
aI1
aa(lp2091
I2
aI2
aI1
aI2
aI2
aI1
aI3
aI-1
aa(lp2092
I1
aI2
aI2
aI1
aI3
aI-1
aI2
aI-2
aa(lp2093
I2
aI1
aI3
aI-1
aI2
aI-2
aI1
aI-2
aa(lp2094
I3
aI-1
aI2
aI-2
aI1
aI-2
aI4
aI-1
aa(lp2095
I2
aI-2
aI1
aI-2
aI4
aI-1
aI3
aI-2
aa(lp2096
I1
aI-2
aI4
aI-1
aI3
aI-2
aI2
aI-2
aa(lp2097
I4
aI-1
aI3
aI-2
aI2
aI-2
aI1
aI-2
aa(lp2098
I3
aI-2
aI2
aI-2
aI1
aI-2
aI3
aI-1
aa(lp2099
I2
aI-2
aI1
aI-2
aI3
aI-1
aI2
aI-2
aa(lp2100
I1
aI-2
aI3
aI-1
aI2
aI-2
aI1
aI-2
aa(lp2101
I3
aI-1
aI2
aI-2
aI1
aI-2
aI4
aI-1
aa(lp2102
I2
aI-2
aI1
aI-2
aI4
aI-1
aI3
aI-2
aa(lp2103
I1
aI-2
aI4
aI-1
aI3
aI-2
aI2
aI2
aa(lp2104
I4
aI-1
aI3
aI-2
aI2
aI2
aI3
aI1
aa(lp2105
I3
aI-2
aI2
aI2
aI3
aI1
aI4
aI-12
aa(lp2106
I2
aI2
aI3
aI1
aI4
aI-12
aI1
aI0
aa(lp2107
I3
aI-1
aI2
aI3
aI4
aI-2
aI3
aI4
aa(lp2108
I2
aI3
aI4
aI-2
aI3
aI4
aI5
aI-2
aa(lp2109
I4
aI-2
aI3
aI4
aI5
aI-2
aI4
aI-2
aa(lp2110
I3
aI4
aI5
aI-2
aI4
aI-2
aI3
aI-1
aa(lp2111
I5
aI-2
aI4
aI-2
aI3
aI-1
aI2
aI-2
aa(lp2112
I4
aI-2
aI3
aI-1
aI2
aI-2
aI1
aI-2
aa(lp2113
I3
aI-1
aI2
aI-2
aI1
aI-2
aI4
aI-2
aa(lp2114
I2
aI-2
aI1
aI-2
aI4
aI-2
aI3
aI-1
aa(lp2115
I1
aI-2
aI4
aI-2
aI3
aI-1
aI2
aI-2
aa(lp2116
I4
aI-2
aI3
aI-1
aI2
aI-2
aI1
aI-2
aa(lp2117
I3
aI-1
aI2
aI-2
aI1
aI-2
aI2
aI-1
aa(lp2118
I2
aI-2
aI1
aI-2
aI2
aI-1
aI1
aI1
aa(lp2119
I1
aI-2
aI2
aI-1
aI1
aI1
aI2
aI2
aa(lp2120
I3
aI-1
aI2
aI3
aI4
aI-2
aI1
aI3
aa(lp2121
I2
aI3
aI4
aI-2
aI1
aI3
aI3
aI-1
aa(lp2122
I4
aI-2
aI1
aI3
aI3
aI-1
aI2
aI-2
aa(lp2123
I1
aI3
aI3
aI-1
aI2
aI-2
aI1
aI-2
aa(lp2124
I3
aI-1
aI2
aI-2
aI1
aI-2
aI4
aI-1
aa(lp2125
I2
aI-2
aI1
aI-2
aI4
aI-1
aI3
aI-2
aa(lp2126
I1
aI-2
aI4
aI-1
aI3
aI-2
aI2
aI-2
aa(lp2127
I4
aI-1
aI3
aI-2
aI2
aI-2
aI1
aI-2
aa(lp2128
I3
aI-2
aI2
aI-2
aI1
aI-2
aI3
aI-1
aa(lp2129
I2
aI-2
aI1
aI-2
aI3
aI-1
aI2
aI-2
aa(lp2130
I1
aI-2
aI3
aI-1
aI2
aI-2
aI1
aI-2
aa(lp2131
I3
aI-1
aI2
aI-2
aI1
aI-2
aI2
aI2
aa(lp2132
I2
aI-2
aI1
aI-2
aI2
aI2
aI3
aI2
aa(lp2133
I1
aI1
aI2
aI1
aI3
aI1
aI1
aI1
aa(lp2134
I2
aI1
aI3
aI1
aI1
aI1
aI3
aI1
aa(lp2135
I3
aI1
aI1
aI1
aI3
aI1
aI1
aI1
aa(lp2136
I1
aI1
aI3
aI1
aI1
aI1
aI3
aI1
aa(lp2137
I3
aI1
aI1
aI1
aI3
aI1
aI1
aI1
aa(lp2138
I1
aI1
aI3
aI1
aI1
aI1
aI1
aI1
aa(lp2139
I3
aI1
aI1
aI1
aI1
aI1
aI2
aI1
aa(lp2140
I1
aI1
aI1
aI1
aI2
aI1
aI1
aI1
aa(lp2141
I1
aI1
aI2
aI1
aI1
aI1
aI2
aI1
aa(lp2142
I2
aI1
aI1
aI1
aI2
aI1
aI1
aI1
aa(lp2143
I1
aI1
aI2
aI1
aI1
aI1
aI2
aI1
aa(lp2144
I2
aI1
aI1
aI1
aI2
aI1
aI3
aI1
aa(lp2145
I1
aI1
aI2
aI1
aI3
aI1
aI1
aI1
aa(lp2146
I2
aI1
aI3
aI1
aI1
aI1
aI2
aI1
aa(lp2147
I3
aI1
aI1
aI1
aI2
aI1
aI1
aI1
aa(lp2148
I1
aI1
aI2
aI1
aI1
aI1
aI2
aI1
aa(lp2149
I2
aI1
aI1
aI1
aI2
aI1
aI1
aI1
aa(lp2150
I1
aI1
aI2
aI1
aI1
aI1
aI2
aI-1
aa(lp2151
I2
aI1
aI1
aI1
aI2
aI-1
aI1
aI1
aa(lp2152
I1
aI1
aI2
aI-1
aI1
aI1
aI2
aI1
aa(lp2153
I2
aI-1
aI1
aI1
aI2
aI1
aI3
aI3
aa(lp2154
I1
aI1
aI2
aI1
aI3
aI3
aI5
aI-2
aa(lp2155
I2
aI1
aI3
aI3
aI5
aI-2
aI4
aI-1
aa(lp2156
I3
aI3
aI5
aI-2
aI4
aI-1
aI3
aI1
aa(lp2157
I5
aI-2
aI4
aI-1
aI3
aI1
aI4
aI-4
aa(lp2158
I4
aI-1
aI3
aI1
aI4
aI-4
aI2
aI-3
aa(lp2159
I3
aI1
aI4
aI-4
aI2
aI-3
aI1
aI7
aa(lp2160
I4
aI-4
aI2
aI-3
aI1
aI7
aI5
aI-2
aa(lp2161
I2
aI-3
aI1
aI7
aI5
aI-2
aI4
aI-1
aa(lp2162
I1
aI7
aI5
aI-2
aI4
aI-1
aI3
aI1
aa(lp2163
I5
aI-2
aI4
aI-1
aI3
aI1
aI4
aI-3
aa(lp2164
I4
aI-1
aI3
aI1
aI4
aI-3
aI2
aI-4
aa(lp2165
I3
aI1
aI4
aI-3
aI2
aI-4
aI1
aI7
aa(lp2166
I4
aI-3
aI2
aI-4
aI1
aI7
aI5
aI-2
aa(lp2167
I2
aI-4
aI1
aI7
aI5
aI-2
aI4
aI-1
aa(lp2168
I1
aI7
aI5
aI-2
aI4
aI-1
aI2
aI1
aa(lp2169
I5
aI-2
aI4
aI-1
aI2
aI1
aI4
aI-1
aa(lp2170
I4
aI-1
aI2
aI1
aI4
aI-1
aI3
aI-2
aa(lp2171
I2
aI1
aI4
aI-1
aI3
aI-2
aI2
aI-2
aa(lp2172
I4
aI-1
aI3
aI-2
aI2
aI-2
aI1
aI-1
aa(lp2173
I3
aI-2
aI2
aI-2
aI1
aI-1
aI2
aI1
aa(lp2174
I2
aI-2
aI1
aI-1
aI2
aI1
aI3
aI0
aa(lp2175
I1
aI-1
aI2
aI1
aI3
aI0
aI3
aI0
aa(lp2176
I3
aI2
aI4
aI-2
aI3
aI-1
aI2
aI1
aa(lp2177
I3
aI2
aI4
aI-2
aI3
aI-1
aI2
aI1
aa(lp2178
I3
aI2
aI4
aI-2
aI3
aI-1
aI2
aI1
aa(lp2179
I3
aI2
aI4
aI-2
aI3
aI-1
aI2
aI1
aa(lp2180
I4
aI-2
aI3
aI-1
aI2
aI1
aI1
aI-7
aa(lp2181
I3
aI-1
aI2
aI1
aI1
aI-7
aI4
aI-5
aa(lp2182
I2
aI1
aI1
aI-7
aI4
aI-5
aI1
aI2
aa(lp2183
I1
aI-7
aI4
aI-5
aI1
aI2
aI2
aI2
aa(lp2184
I4
aI-5
aI1
aI2
aI2
aI2
aI3
aI1
aa(lp2185
I1
aI2
aI2
aI2
aI3
aI1
aI3
aI2
aa(lp2186
I2
aI2
aI3
aI1
aI3
aI2
aI1
aI2
aa(lp2187
I3
aI1
aI3
aI2
aI1
aI2
aI2
aI1
aa(lp2188
I3
aI2
aI1
aI2
aI2
aI1
aI3
aI2
aa(lp2189
I1
aI2
aI2
aI1
aI3
aI2
aI1
aI2
aa(lp2190
I2
aI1
aI3
aI2
aI1
aI2
aI2
aI2
aa(lp2191
I3
aI2
aI1
aI2
aI2
aI2
aI3
aI1
aa(lp2192
I1
aI2
aI2
aI2
aI3
aI1
aI4
aI2
aa(lp2193
I2
aI2
aI3
aI1
aI4
aI2
aI1
aI2
aa(lp2194
I3
aI1
aI4
aI2
aI1
aI2
aI2
aI1
aa(lp2195
I4
aI2
aI1
aI2
aI2
aI1
aI3
aI2
aa(lp2196
I1
aI2
aI2
aI1
aI3
aI2
aI4
aI-2
aa(lp2197
I2
aI1
aI3
aI2
aI4
aI-2
aI3
aI-1
aa(lp2198
I3
aI2
aI4
aI-2
aI3
aI-1
aI2
aI-2
aa(lp2199
I4
aI-2
aI3
aI-1
aI2
aI-2
aI1
aI-2
aa(lp2200
I3
aI-1
aI2
aI-2
aI1
aI-2
aI4
aI-1
aa(lp2201
I2
aI-2
aI1
aI-2
aI4
aI-1
aI3
aI-2
aa(lp2202
I1
aI-2
aI4
aI-1
aI3
aI-2
aI2
aI-2
aa(lp2203
I4
aI-1
aI3
aI-2
aI2
aI-2
aI1
aI-2
aa(lp2204
I3
aI-2
aI2
aI-2
aI1
aI-2
aI3
aI-1
aa(lp2205
I2
aI-2
aI1
aI-2
aI3
aI-1
aI2
aI-2
aa(lp2206
I1
aI-2
aI3
aI-1
aI2
aI-2
aI1
aI3
aa(lp2207
I3
aI-1
aI2
aI-2
aI1
aI3
aI3
aI-1
aa(lp2208
I2
aI-2
aI1
aI3
aI3
aI-1
aI2
aI-2
aa(lp2209
I1
aI3
aI3
aI-1
aI2
aI-2
aI1
aI-2
aa(lp2210
I3
aI-1
aI2
aI-2
aI1
aI-2
aI4
aI-1
aa(lp2211
I2
aI-2
aI1
aI-2
aI4
aI-1
aI3
aI-2
aa(lp2212
I1
aI-2
aI4
aI-1
aI3
aI-2
aI2
aI-2
aa(lp2213
I4
aI-1
aI3
aI-2
aI2
aI-2
aI1
aI5
aa(lp2214
I3
aI-2
aI2
aI-2
aI1
aI5
aI2
aI4
aa(lp2215
I2
aI-2
aI1
aI5
aI2
aI4
aI4
aI3
aa(lp2216
I1
aI5
aI2
aI4
aI4
aI3
aI5
aI-3
aa(lp2217
I2
aI4
aI4
aI3
aI5
aI-3
aI4
aI-4
aa(lp2218
I4
aI3
aI5
aI-3
aI4
aI-4
aI2
aI-5
aa(lp2219
I5
aI-3
aI4
aI-4
aI2
aI-5
aI1
aI4
aa(lp2220
I4
aI-4
aI2
aI-5
aI1
aI4
aI2
aI3
aa(lp2221
I2
aI-5
aI1
aI4
aI2
aI3
aI4
aI3
aa(lp2222
I1
aI4
aI2
aI3
aI4
aI3
aI5
aI-3
aa(lp2223
I2
aI3
aI4
aI3
aI5
aI-3
aI4
aI-3
aa(lp2224
I4
aI3
aI5
aI-3
aI4
aI-3
aI2
aI1
aa(lp2225
I5
aI-3
aI4
aI-3
aI2
aI1
aI3
aI-5
aa(lp2226
I4
aI-3
aI2
aI1
aI3
aI-5
aI1
aI9
aa(lp2227
I2
aI1
aI3
aI-5
aI1
aI9
aI5
aI-9
aa(lp2228
I3
aI-5
aI1
aI9
aI5
aI-9
aI1
aI5
aa(lp2229
I1
aI9
aI5
aI-9
aI1
aI5
aI3
aI-5
aa(lp2230
I5
aI-9
aI1
aI5
aI3
aI-5
aI1
aI9
aa(lp2231
I1
aI5
aI3
aI-5
aI1
aI9
aI5
aI-9
aa(lp2232
I3
aI-5
aI1
aI9
aI5
aI-9
aI1
aI5
aa(lp2233
I1
aI9
aI5
aI-9
aI1
aI5
aI3
aI0
aa(lp2234
I5
aI-9
aI1
aI5
aI3
aI0
aI3
aI0
aa(lp2235
I1
aI2
aI2
aI2
aI3
aI1
aI1
aI2
aa(lp2236
I2
aI2
aI3
aI1
aI1
aI2
aI2
aI2
aa(lp2237
I3
aI1
aI1
aI2
aI2
aI2
aI3
aI1
aa(lp2238
I1
aI2
aI2
aI2
aI3
aI1
aI1
aI2
aa(lp2239
I2
aI2
aI3
aI1
aI1
aI2
aI2
aI2
aa(lp2240
I3
aI1
aI1
aI2
aI2
aI2
aI3
aI1
aa(lp2241
I1
aI2
aI2
aI2
aI3
aI1
aI4
aI2
aa(lp2242
I2
aI2
aI3
aI1
aI4
aI2
aI5
aI-2
aa(lp2243
I3
aI1
aI4
aI2
aI5
aI-2
aI4
aI-1
aa(lp2244
I4
aI2
aI5
aI-2
aI4
aI-1
aI3
aI-4
aa(lp2245
I5
aI-2
aI4
aI-1
aI3
aI-4
aI1
aI2
aa(lp2246
I4
aI-1
aI3
aI-4
aI1
aI2
aI2
aI2
aa(lp2247
I3
aI-4
aI1
aI2
aI2
aI2
aI3
aI1
aa(lp2248
I1
aI2
aI2
aI2
aI3
aI1
aI1
aI2
aa(lp2249
I2
aI2
aI3
aI1
aI1
aI2
aI2
aI2
aa(lp2250
I3
aI1
aI1
aI2
aI2
aI2
aI3
aI2
aa(lp2251
I1
aI2
aI2
aI2
aI3
aI2
aI4
aI1
aa(lp2252
I2
aI2
aI3
aI2
aI4
aI1
aI5
aI-12
aa(lp2253
I3
aI2
aI4
aI1
aI5
aI-12
aI1
aI2
aa(lp2254
I4
aI1
aI5
aI-12
aI1
aI2
aI2
aI2
aa(lp2255
I5
aI-12
aI1
aI2
aI2
aI2
aI3
aI1
aa(lp2256
I1
aI2
aI2
aI2
aI3
aI1
aI1
aI2
aa(lp2257
I2
aI2
aI3
aI1
aI1
aI2
aI2
aI2
aa(lp2258
I3
aI1
aI1
aI2
aI2
aI2
aI3
aI1
aa(lp2259
I1
aI2
aI2
aI2
aI3
aI1
aI4
aI2
aa(lp2260
I2
aI2
aI3
aI1
aI4
aI2
aI5
aI-2
aa(lp2261
I3
aI1
aI4
aI2
aI5
aI-2
aI4
aI-1
aa(lp2262
I4
aI2
aI5
aI-2
aI4
aI-1
aI3
aI-4
aa(lp2263
I5
aI-2
aI4
aI-1
aI3
aI-4
aI1
aI2
aa(lp2264
I4
aI-1
aI3
aI-4
aI1
aI2
aI2
aI2
aa(lp2265
I3
aI-4
aI1
aI2
aI2
aI2
aI3
aI1
aa(lp2266
I1
aI2
aI2
aI2
aI3
aI1
aI1
aI2
aa(lp2267
I2
aI2
aI3
aI1
aI1
aI2
aI2
aI2
aa(lp2268
I3
aI1
aI1
aI2
aI2
aI2
aI3
aI2
aa(lp2269
I1
aI2
aI2
aI2
aI3
aI2
aI4
aI1
aa(lp2270
I2
aI2
aI3
aI2
aI4
aI1
aI5
aI-5
aa(lp2271
I3
aI2
aI4
aI1
aI5
aI-5
aI1
aI2
aa(lp2272
I4
aI1
aI5
aI-5
aI1
aI2
aI2
aI2
aa(lp2273
I5
aI-5
aI1
aI2
aI2
aI2
aI3
aI1
aa(lp2274
I1
aI2
aI2
aI2
aI3
aI1
aI1
aI2
aa(lp2275
I2
aI2
aI3
aI1
aI1
aI2
aI2
aI2
aa(lp2276
I3
aI1
aI1
aI2
aI2
aI2
aI3
aI1
aa(lp2277
I5
aI-1
aI4
aI1
aI5
aI-2
aI4
aI-1
aa(lp2278
I4
aI1
aI5
aI-2
aI4
aI-1
aI3
aI-2
aa(lp2279
I5
aI-2
aI4
aI-1
aI3
aI-2
aI2
aI-2
aa(lp2280
I4
aI-1
aI3
aI-2
aI2
aI-2
aI1
aI-1
aa(lp2281
I3
aI-2
aI2
aI-2
aI1
aI-1
aI3
aI-2
aa(lp2282
I2
aI-2
aI1
aI-1
aI3
aI-2
aI2
aI-2
aa(lp2283
I1
aI-1
aI3
aI-2
aI2
aI-2
aI1
aI-2
aa(lp2284
I3
aI-2
aI2
aI-2
aI1
aI-2
aI4
aI-1
aa(lp2285
I2
aI-2
aI1
aI-2
aI4
aI-1
aI3
aI-2
aa(lp2286
I1
aI-2
aI4
aI-1
aI3
aI-2
aI2
aI-2
aa(lp2287
I4
aI-1
aI3
aI-2
aI2
aI-2
aI1
aI-1
aa(lp2288
I3
aI-2
aI2
aI-2
aI1
aI-1
aI2
aI1
aa(lp2289
I2
aI-2
aI1
aI-1
aI2
aI1
aI1
aI2
aa(lp2290
I1
aI-1
aI2
aI1
aI1
aI2
aI2
aI2
aa(lp2291
I2
aI1
aI1
aI2
aI2
aI2
aI3
aI1
aa(lp2292
I1
aI2
aI2
aI2
aI3
aI1
aI1
aI2
aa(lp2293
I2
aI2
aI3
aI1
aI1
aI2
aI2
aI2
aa(lp2294
I3
aI1
aI1
aI2
aI2
aI2
aI3
aI2
aa(lp2295
I1
aI2
aI2
aI2
aI3
aI2
aI4
aI1
aa(lp2296
I2
aI2
aI3
aI2
aI4
aI1
aI5
aI-12
aa(lp2297
I3
aI-4
aI1
aI2
aI2
aI2
aI3
aI1
aa(lp2298
I1
aI2
aI2
aI2
aI3
aI1
aI1
aI2
aa(lp2299
I2
aI2
aI3
aI1
aI1
aI2
aI2
aI2
aa(lp2300
I3
aI1
aI1
aI2
aI2
aI2
aI3
aI2
aa(lp2301
I1
aI2
aI2
aI2
aI3
aI2
aI4
aI1
aa(lp2302
I2
aI2
aI3
aI2
aI4
aI1
aI1
aI2
aa(lp2303
I3
aI2
aI4
aI1
aI1
aI2
aI2
aI2
aa(lp2304
I4
aI1
aI1
aI2
aI2
aI2
aI3
aI-4
aa(lp2305
I1
aI2
aI2
aI2
aI3
aI-4
aI1
aI2
aa(lp2306
I2
aI2
aI3
aI-4
aI1
aI2
aI2
aI2
aa(lp2307
I3
aI-4
aI1
aI2
aI2
aI2
aI3
aI-2
aa(lp2308
I1
aI2
aI2
aI2
aI3
aI-2
aI2
aI2
aa(lp2309
I2
aI2
aI3
aI-2
aI2
aI2
aI3
aI1
aa(lp2310
I3
aI-2
aI2
aI2
aI3
aI1
aI4
aI-1
aa(lp2311
I2
aI2
aI3
aI1
aI4
aI-1
aI3
aI-2
aa(lp2312
I3
aI1
aI4
aI-1
aI3
aI-2
aI2
aI-2
aa(lp2313
I4
aI-1
aI3
aI-2
aI2
aI-2
aI1
aI-1
aa(lp2314
I3
aI-2
aI2
aI-2
aI1
aI-1
aI2
aI-6
aa(lp2315
I2
aI-2
aI1
aI-1
aI2
aI-6
aI3
aI-3
aa(lp2316
I1
aI-1
aI2
aI-6
aI3
aI-3
aI1
aI2
aa(lp2317
I2
aI-6
aI3
aI-3
aI1
aI2
aI2
aI1
aa(lp2318
I3
aI-3
aI1
aI2
aI2
aI1
aI3
aI2
aa(lp2319
I1
aI2
aI2
aI1
aI3
aI2
aI1
aI2
aa(lp2320
I2
aI1
aI3
aI2
aI1
aI2
aI2
aI2
aa(lp2321
I3
aI2
aI1
aI2
aI2
aI2
aI3
aI1
aa(lp2322
I1
aI2
aI2
aI2
aI3
aI1
aI1
aI2
aa(lp2323
I2
aI2
aI3
aI1
aI1
aI2
aI2
aI2
aa(lp2324
I3
aI1
aI1
aI2
aI2
aI2
aI3
aI1
aa(lp2325
I1
aI2
aI2
aI2
aI3
aI1
aI4
aI-3
aa(lp2326
I2
aI2
aI3
aI1
aI4
aI-3
aI2
aI2
aa(lp2327
I3
aI1
aI4
aI-3
aI2
aI2
aI3
aI1
aa(lp2328
I4
aI-3
aI2
aI2
aI3
aI1
aI4
aI-1
aa(lp2329
I2
aI2
aI3
aI1
aI4
aI-1
aI3
aI1
aa(lp2330
I3
aI1
aI4
aI-1
aI3
aI1
aI4
aI2
aa(lp2331
I4
aI-1
aI3
aI1
aI4
aI2
aI5
aI-2
aa(lp2332
I3
aI1
aI4
aI2
aI5
aI-2
aI4
aI-1
aa(lp2333
I4
aI2
aI5
aI-2
aI4
aI-1
aI3
aI-2
aa(lp2334
I5
aI-2
aI4
aI-1
aI3
aI-2
aI2
aI-2
aa(lp2335
I4
aI-1
aI3
aI-2
aI2
aI-2
aI1
aI0
aa(lp2336
I3
aI-2
aI2
aI-2
aI1
aI0
aI1
aI2
aa(lp2337
I2
aI-2
aI1
aI0
aI1
aI2
aI2
aI2
aa(lp2338
I1
aI0
aI1
aI2
aI2
aI2
aI3
aI1
aa(lp2339
I1
aI2
aI2
aI2
aI3
aI1
aI4
aI2
aa(lp2340
I2
aI2
aI3
aI1
aI4
aI2
aI1
aI2
aa(lp2341
I3
aI1
aI4
aI2
aI1
aI2
aI2
aI2
aa(lp2342
I4
aI2
aI1
aI2
aI2
aI2
aI3
aI1
aa(lp2343
I1
aI2
aI2
aI2
aI3
aI1
aI1
aI2
aa(lp2344
I2
aI2
aI3
aI1
aI1
aI2
aI2
aI2
aa(lp2345
I3
aI1
aI1
aI2
aI2
aI2
aI3
aI1
aa(lp2346
I1
aI2
aI2
aI2
aI3
aI1
aI4
aI2
aa(lp2347
I2
aI2
aI3
aI1
aI4
aI2
aI5
aI-2
aa(lp2348
I3
aI1
aI4
aI2
aI5
aI-2
aI4
aI-1
aa(lp2349
I4
aI2
aI5
aI-2
aI4
aI-1
aI3
aI-2
aa(lp2350
I5
aI-2
aI4
aI-1
aI3
aI-2
aI2
aI-2
aa(lp2351
I4
aI-1
aI3
aI-2
aI2
aI-2
aI1
aI-1
aa(lp2352
I3
aI-2
aI2
aI-2
aI1
aI-1
aI4
aI-2
aa(lp2353
I2
aI-2
aI1
aI-1
aI4
aI-2
aI3
aI-2
aa(lp2354
I1
aI-1
aI4
aI-2
aI3
aI-2
aI2
aI-2
aa(lp2355
I4
aI-2
aI3
aI-2
aI2
aI-2
aI1
aI-1
aa(lp2356
I3
aI-2
aI2
aI-2
aI1
aI-1
aI3
aI-2
aa(lp2357
I2
aI-2
aI1
aI-1
aI3
aI-2
aI2
aI-2
aa(lp2358
I1
aI-1
aI3
aI-2
aI2
aI-2
aI1
aI-1
aa(lp2359
I3
aI-2
aI2
aI-2
aI1
aI-1
aI4
aI-2
aa(lp2360
I2
aI-2
aI1
aI-1
aI4
aI-2
aI3
aI-2
aa(lp2361
I1
aI-1
aI4
aI-2
aI3
aI-2
aI2
aI-2
aa(lp2362
I4
aI-2
aI3
aI-2
aI2
aI-2
aI1
aI-1
aa(lp2363
I3
aI-2
aI2
aI-2
aI1
aI-1
aI4
aI-2
aa(lp2364
I2
aI-2
aI1
aI-1
aI4
aI-2
aI3
aI-2
aa(lp2365
I1
aI-1
aI4
aI-2
aI3
aI-2
aI2
aI-1
aa(lp2366
I4
aI-2
aI3
aI-2
aI2
aI-1
aI1
aI-2
aa(lp2367
I3
aI-2
aI2
aI-1
aI1
aI-2
aI2
aI-2
aa(lp2368
I2
aI-1
aI1
aI-2
aI2
aI-2
aI1
aI10
aa(lp2369
I1
aI-2
aI2
aI-2
aI1
aI10
aI5
aI-1
aa(lp2370
I2
aI-2
aI1
aI10
aI5
aI-1
aI4
aI-2
aa(lp2371
I1
aI10
aI5
aI-1
aI4
aI-2
aI3
aI-2
aa(lp2372
I5
aI-1
aI4
aI-2
aI3
aI-2
aI1
aI2
aa(lp2373
I4
aI-2
aI3
aI-2
aI1
aI2
aI2
aI2
aa(lp2374
I3
aI-2
aI1
aI2
aI2
aI2
aI3
aI1
aa(lp2375
I1
aI2
aI2
aI2
aI3
aI1
aI4
aI2
aa(lp2376
I2
aI2
aI3
aI1
aI4
aI2
aI1
aI2
aa(lp2377
I3
aI1
aI4
aI2
aI1
aI2
aI2
aI2
aa(lp2378
I4
aI2
aI1
aI2
aI2
aI2
aI3
aI1
aa(lp2379
I1
aI2
aI2
aI2
aI3
aI1
aI4
aI-12
aa(lp2380
I2
aI2
aI3
aI1
aI4
aI-12
aI1
aI12
aa(lp2381
I3
aI1
aI4
aI-12
aI1
aI12
aI5
aI-7
aa(lp2382
I4
aI-12
aI1
aI12
aI5
aI-7
aI1
aI5
aa(lp2383
I1
aI12
aI5
aI-7
aI1
aI5
aI4
aI-5
aa(lp2384
I5
aI-7
aI1
aI5
aI4
aI-5
aI1
aI4
aa(lp2385
I1
aI5
aI4
aI-5
aI1
aI4
aI3
aI-4
aa(lp2386
I4
aI-5
aI1
aI4
aI3
aI-4
aI1
aI5
aa(lp2387
I1
aI4
aI3
aI-4
aI1
aI5
aI4
aI-5
aa(lp2388
I3
aI-4
aI1
aI5
aI4
aI-5
aI1
aI7
aa(lp2389
I1
aI5
aI4
aI-5
aI1
aI7
aI5
aI-7
aa(lp2390
I4
aI-5
aI1
aI7
aI5
aI-7
aI1
aI4
aa(lp2391
I1
aI7
aI5
aI-7
aI1
aI4
aI3
aI-4
aa(lp2392
I5
aI-7
aI1
aI4
aI3
aI-4
aI1
aI5
aa(lp2393
I1
aI4
aI3
aI-4
aI1
aI5
aI5
aI-10
aa(lp2394
I3
aI-4
aI1
aI5
aI5
aI-10
aI1
aI9
aa(lp2395
I1
aI5
aI5
aI-10
aI1
aI9
aI4
aI-9
aa(lp2396
I5
aI-10
aI1
aI9
aI4
aI-9
aI1
aI7
aa(lp2397
I1
aI9
aI4
aI-9
aI1
aI7
aI3
aI-7
aa(lp2398
I4
aI-9
aI1
aI7
aI3
aI-7
aI1
aI9
aa(lp2399
I1
aI7
aI3
aI-7
aI1
aI9
aI3
aI-9
aa(lp2400
I3
aI-7
aI1
aI9
aI3
aI-9
aI1
aI10
aa(lp2401
I1
aI9
aI3
aI-9
aI1
aI10
aI5
aI-10
aa(lp2402
I3
aI-9
aI1
aI10
aI5
aI-10
aI1
aI7
aa(lp2403
I1
aI10
aI5
aI-10
aI1
aI7
aI4
aI-7
aa(lp2404
I5
aI-10
aI1
aI7
aI4
aI-7
aI1
aI10
aa(lp2405
I1
aI7
aI4
aI-7
aI1
aI10
aI5
aI-10
aa(lp2406
I4
aI-7
aI1
aI10
aI5
aI-10
aI1
aI9
aa(lp2407
I1
aI10
aI5
aI-10
aI1
aI9
aI4
aI-9
aa(lp2408
I5
aI-10
aI1
aI9
aI4
aI-9
aI1
aI7
aa(lp2409
I1
aI9
aI4
aI-9
aI1
aI7
aI3
aI-7
aa(lp2410
I4
aI-9
aI1
aI7
aI3
aI-7
aI1
aI9
aa(lp2411
I1
aI7
aI3
aI-7
aI1
aI9
aI4
aI-9
aa(lp2412
I3
aI-7
aI1
aI9
aI4
aI-9
aI1
aI10
aa(lp2413
I1
aI9
aI4
aI-9
aI1
aI10
aI5
aI-10
aa(lp2414
I4
aI-9
aI1
aI10
aI5
aI-10
aI1
aI7
aa(lp2415
I1
aI10
aI5
aI-10
aI1
aI7
aI4
aI-7
aa(lp2416
I5
aI-10
aI1
aI7
aI4
aI-7
aI1
aI9
aa(lp2417
I1
aI7
aI4
aI-7
aI1
aI9
aI4
aI-9
aa(lp2418
I4
aI-7
aI1
aI9
aI4
aI-9
aI1
aI7
aa(lp2419
I1
aI9
aI4
aI-9
aI1
aI7
aI3
aI-7
aa(lp2420
I4
aI-9
aI1
aI7
aI3
aI-7
aI1
aI5
aa(lp2421
I1
aI7
aI3
aI-7
aI1
aI5
aI2
aI-5
aa(lp2422
I3
aI-7
aI1
aI5
aI2
aI-5
aI1
aI7
aa(lp2423
I1
aI5
aI2
aI-5
aI1
aI7
aI3
aI-7
aa(lp2424
I2
aI-5
aI1
aI7
aI3
aI-7
aI1
aI9
aa(lp2425
I1
aI7
aI3
aI-7
aI1
aI9
aI4
aI-9
aa(lp2426
I3
aI-7
aI1
aI9
aI4
aI-9
aI1
aI5
aa(lp2427
I1
aI9
aI4
aI-9
aI1
aI5
aI2
aI-5
aa(lp2428
I4
aI-9
aI1
aI5
aI2
aI-5
aI1
aI9
aa(lp2429
I1
aI5
aI2
aI-5
aI1
aI9
aI5
aI-9
aa(lp2430
I2
aI-5
aI1
aI9
aI5
aI-9
aI1
aI7
aa(lp2431
I1
aI9
aI5
aI-9
aI1
aI7
aI4
aI-7
aa(lp2432
I5
aI-9
aI1
aI7
aI4
aI-7
aI1
aI5
aa(lp2433
I1
aI7
aI4
aI-7
aI1
aI5
aI3
aI-5
aa(lp2434
I4
aI-7
aI1
aI5
aI3
aI-5
aI1
aI7
aa(lp2435
I1
aI5
aI3
aI-5
aI1
aI7
aI4
aI-7
aa(lp2436
I3
aI-5
aI1
aI7
aI4
aI-7
aI1
aI9
aa(lp2437
I1
aI7
aI4
aI-7
aI1
aI9
aI5
aI-9
aa(lp2438
I4
aI-7
aI1
aI9
aI5
aI-9
aI1
aI5
aa(lp2439
I1
aI9
aI5
aI-9
aI1
aI5
aI4
aI-5
aa(lp2440
I5
aI-9
aI1
aI5
aI4
aI-5
aI1
aI2
aa(lp2441
I1
aI5
aI4
aI-5
aI1
aI2
aI2
aI5
aa(lp2442
I4
aI-5
aI1
aI2
aI2
aI5
aI4
aI-5
aa(lp2443
I1
aI2
aI2
aI5
aI4
aI-5
aI2
aI5
aa(lp2444
I2
aI5
aI4
aI-5
aI2
aI5
aI4
aI3
aa(lp2445
I4
aI-5
aI2
aI5
aI4
aI3
aI5
aI-3
aa(lp2446
I2
aI5
aI4
aI3
aI5
aI-3
aI4
aI3
aa(lp2447
I4
aI3
aI5
aI-3
aI4
aI3
aI5
aI-3
aa(lp2448
I5
aI-3
aI4
aI3
aI5
aI-3
aI4
aI-5
aa(lp2449
I4
aI3
aI5
aI-3
aI4
aI-5
aI2
aI5
aa(lp2450
I5
aI-3
aI4
aI-5
aI2
aI5
aI4
aI-5
aa(lp2451
I4
aI-5
aI2
aI5
aI4
aI-5
aI2
aI5
aa(lp2452
I2
aI5
aI4
aI-5
aI2
aI5
aI4
aI-7
aa(lp2453
I4
aI-5
aI2
aI5
aI4
aI-7
aI1
aI2
aa(lp2454
I2
aI5
aI4
aI-7
aI1
aI2
aI2
aI2
aa(lp2455
I4
aI-7
aI1
aI2
aI2
aI2
aI3
aI1
aa(lp2456
I1
aI2
aI2
aI2
aI3
aI1
aI1
aI2
aa(lp2457
I2
aI2
aI3
aI1
aI1
aI2
aI2
aI2
aa(lp2458
I3
aI1
aI1
aI2
aI2
aI2
aI3
aI1
aa(lp2459
I1
aI2
aI2
aI2
aI3
aI1
aI4
aI2
aa(lp2460
I2
aI2
aI3
aI1
aI4
aI2
aI5
aI-5
aa(lp2461
I3
aI1
aI4
aI2
aI5
aI-5
aI2
aI3
aa(lp2462
I4
aI2
aI5
aI-5
aI2
aI3
aI4
aI-1
aa(lp2463
I5
aI-5
aI2
aI3
aI4
aI-1
aI3
aI-2
aa(lp2464
I2
aI3
aI4
aI-1
aI3
aI-2
aI2
aI-2
aa(lp2465
I4
aI-1
aI3
aI-2
aI2
aI-2
aI1
aI0
aa(lp2466
I3
aI-2
aI2
aI-2
aI1
aI0
aI2
aI4
aa(lp2467
I2
aI-2
aI1
aI0
aI2
aI4
aI4
aI-2
aa(lp2468
I1
aI0
aI2
aI4
aI4
aI-2
aI3
aI-2
aa(lp2469
I2
aI4
aI4
aI-2
aI3
aI-2
aI2
aI-2
aa(lp2470
I4
aI-2
aI3
aI-2
aI2
aI-2
aI1
aI-1
aa(lp2471
I3
aI-2
aI2
aI-2
aI1
aI-1
aI3
aI-4
aa(lp2472
I2
aI-2
aI1
aI-1
aI3
aI-4
aI1
aI2
aa(lp2473
I1
aI-1
aI3
aI-4
aI1
aI2
aI2
aI2
aa(lp2474
I3
aI-4
aI1
aI2
aI2
aI2
aI3
aI1
aa(lp2475
I1
aI2
aI2
aI2
aI3
aI1
aI1
aI2
aa(lp2476
I2
aI2
aI3
aI1
aI1
aI2
aI2
aI2
aa(lp2477
I3
aI1
aI1
aI2
aI2
aI2
aI3
aI2
aa(lp2478
I1
aI2
aI2
aI2
aI3
aI2
aI4
aI1
aa(lp2479
I2
aI2
aI3
aI2
aI4
aI1
aI1
aI2
aa(lp2480
I3
aI2
aI4
aI1
aI1
aI2
aI2
aI2
aa(lp2481
I4
aI1
aI1
aI2
aI2
aI2
aI3
aI-4
aa(lp2482
I1
aI2
aI2
aI2
aI3
aI-4
aI1
aI2
aa(lp2483
I2
aI2
aI3
aI-4
aI1
aI2
aI2
aI2
aa(lp2484
I3
aI-4
aI1
aI2
aI2
aI2
aI3
aI-2
aa(lp2485
I1
aI2
aI2
aI2
aI3
aI-2
aI2
aI2
aa(lp2486
I2
aI2
aI3
aI-2
aI2
aI2
aI3
aI1
aa(lp2487
I3
aI-2
aI2
aI2
aI3
aI1
aI4
aI-1
aa(lp2488
I2
aI2
aI3
aI1
aI4
aI-1
aI3
aI-2
aa(lp2489
I3
aI1
aI4
aI-1
aI3
aI-2
aI2
aI-2
aa(lp2490
I4
aI-1
aI3
aI-2
aI2
aI-2
aI1
aI-1
aa(lp2491
I3
aI-2
aI2
aI-2
aI1
aI-1
aI2
aI-6
aa(lp2492
I2
aI-2
aI1
aI-1
aI2
aI-6
aI3
aI-3
aa(lp2493
I1
aI-1
aI2
aI-6
aI3
aI-3
aI1
aI2
aa(lp2494
I2
aI-6
aI3
aI-3
aI1
aI2
aI2
aI1
aa(lp2495
I3
aI-3
aI1
aI2
aI2
aI1
aI3
aI2
aa(lp2496
I1
aI2
aI2
aI1
aI3
aI2
aI1
aI2
aa(lp2497
I2
aI1
aI3
aI2
aI1
aI2
aI2
aI2
aa(lp2498
I3
aI2
aI1
aI2
aI2
aI2
aI3
aI1
aa(lp2499
I1
aI2
aI2
aI2
aI3
aI1
aI1
aI2
aa(lp2500
I2
aI2
aI3
aI1
aI1
aI2
aI2
aI2
aa(lp2501
I3
aI1
aI1
aI2
aI2
aI2
aI3
aI1
aa(lp2502
I1
aI2
aI2
aI2
aI3
aI1
aI4
aI-3
aa(lp2503
I2
aI2
aI3
aI1
aI4
aI-3
aI2
aI2
aa(lp2504
I3
aI1
aI4
aI-3
aI2
aI2
aI3
aI1
aa(lp2505
I4
aI-3
aI2
aI2
aI3
aI1
aI4
aI-1
aa(lp2506
I2
aI2
aI3
aI1
aI4
aI-1
aI3
aI1
aa(lp2507
I3
aI1
aI4
aI-1
aI3
aI1
aI4
aI2
aa(lp2508
I4
aI-1
aI3
aI1
aI4
aI2
aI5
aI-2
aa(lp2509
I3
aI1
aI4
aI2
aI5
aI-2
aI4
aI-1
aa(lp2510
I4
aI2
aI5
aI-2
aI4
aI-1
aI3
aI-2
aa(lp2511
I5
aI-2
aI4
aI-1
aI3
aI-2
aI2
aI-2
aa(lp2512
I4
aI-1
aI3
aI-2
aI2
aI-2
aI1
aI0
aa(lp2513
I3
aI-2
aI2
aI-2
aI1
aI0
aI1
aI2
aa(lp2514
I2
aI-2
aI1
aI0
aI1
aI2
aI2
aI2
aa(lp2515
I1
aI0
aI1
aI2
aI2
aI2
aI3
aI1
aa(lp2516
I1
aI2
aI2
aI2
aI3
aI1
aI4
aI2
aa(lp2517
I2
aI2
aI3
aI1
aI4
aI2
aI1
aI2
aa(lp2518
I3
aI1
aI4
aI2
aI1
aI2
aI2
aI2
aa(lp2519
I4
aI2
aI1
aI2
aI2
aI2
aI3
aI1
aa(lp2520
I1
aI2
aI2
aI2
aI3
aI1
aI1
aI2
aa(lp2521
I2
aI2
aI3
aI1
aI1
aI2
aI2
aI2
aa(lp2522
I3
aI1
aI1
aI2
aI2
aI2
aI3
aI1
aa(lp2523
I1
aI2
aI2
aI2
aI3
aI1
aI4
aI2
aa(lp2524
I2
aI2
aI3
aI1
aI4
aI2
aI5
aI-2
aa(lp2525
I3
aI1
aI4
aI2
aI5
aI-2
aI4
aI-1
aa(lp2526
I4
aI2
aI5
aI-2
aI4
aI-1
aI3
aI-2
aa(lp2527
I5
aI-2
aI4
aI-1
aI3
aI-2
aI2
aI-2
aa(lp2528
I4
aI-1
aI3
aI-2
aI2
aI-2
aI1
aI-1
aa(lp2529
I3
aI-2
aI2
aI-2
aI1
aI-1
aI4
aI-2
aa(lp2530
I2
aI-2
aI1
aI-1
aI4
aI-2
aI3
aI-2
aa(lp2531
I1
aI-1
aI4
aI-2
aI3
aI-2
aI2
aI-2
aa(lp2532
I4
aI-2
aI3
aI-2
aI2
aI-2
aI1
aI-1
aa(lp2533
I3
aI-2
aI2
aI-2
aI1
aI-1
aI3
aI-2
aa(lp2534
I2
aI-2
aI1
aI-1
aI3
aI-2
aI2
aI-2
aa(lp2535
I1
aI-1
aI3
aI-2
aI2
aI-2
aI1
aI-1
aa(lp2536
I3
aI-2
aI2
aI-2
aI1
aI-1
aI4
aI-2
aa(lp2537
I2
aI-2
aI1
aI-1
aI4
aI-2
aI3
aI-2
aa(lp2538
I1
aI-1
aI4
aI-2
aI3
aI-2
aI2
aI-2
aa(lp2539
I4
aI-2
aI3
aI-2
aI2
aI-2
aI1
aI-1
aa(lp2540
I3
aI-2
aI2
aI-2
aI1
aI-1
aI4
aI-2
aa(lp2541
I2
aI-2
aI1
aI-1
aI4
aI-2
aI3
aI-2
aa(lp2542
I1
aI-1
aI4
aI-2
aI3
aI-2
aI2
aI-1
aa(lp2543
I4
aI-2
aI3
aI-2
aI2
aI-1
aI1
aI-2
aa(lp2544
I3
aI-2
aI2
aI-1
aI1
aI-2
aI2
aI-2
aa(lp2545
I2
aI-1
aI1
aI-2
aI2
aI-2
aI1
aI10
aa(lp2546
I1
aI-2
aI2
aI-2
aI1
aI10
aI5
aI-1
aa(lp2547
I2
aI-2
aI1
aI10
aI5
aI-1
aI4
aI-2
aa(lp2548
I1
aI10
aI5
aI-1
aI4
aI-2
aI3
aI-2
aa(lp2549
I5
aI-1
aI4
aI-2
aI3
aI-2
aI1
aI2
aa(lp2550
I4
aI-2
aI3
aI-2
aI1
aI2
aI2
aI2
aa(lp2551
I3
aI-2
aI1
aI2
aI2
aI2
aI3
aI1
aa(lp2552
I1
aI2
aI2
aI2
aI3
aI1
aI4
aI2
aa(lp2553
I2
aI2
aI3
aI1
aI4
aI2
aI1
aI2
aa(lp2554
I3
aI1
aI4
aI2
aI1
aI2
aI2
aI2
aa(lp2555
I4
aI2
aI1
aI2
aI2
aI2
aI3
aI1
aa(lp2556
I1
aI2
aI2
aI2
aI3
aI1
aI4
aI-12
aa(lp2557
I5
aI-3
aI3
aI1
aI4
aI2
aI5
aI-2
aa(lp2558
I3
aI1
aI4
aI2
aI5
aI-2
aI4
aI-1
aa(lp2559
I4
aI2
aI5
aI-2
aI4
aI-1
aI3
aI-2
aa(lp2560
I5
aI-2
aI4
aI-1
aI3
aI-2
aI2
aI-2
aa(lp2561
I4
aI-1
aI3
aI-2
aI2
aI-2
aI1
aI4
aa(lp2562
I3
aI-2
aI2
aI-2
aI1
aI4
aI2
aI3
aa(lp2563
I2
aI-2
aI1
aI4
aI2
aI3
aI3
aI5
aa(lp2564
I1
aI4
aI2
aI3
aI3
aI5
aI5
aI-1
aa(lp2565
I2
aI3
aI3
aI5
aI5
aI-1
aI4
aI0
aa(lp2566
I3
aI5
aI5
aI-1
aI4
aI0
aI4
aI1
aa(lp2567
I5
aI-1
aI4
aI0
aI4
aI1
aI5
aI-1
aa(lp2568
I4
aI0
aI4
aI1
aI5
aI-1
aI4
aI-2
aa(lp2569
I4
aI1
aI5
aI-1
aI4
aI-2
aI3
aI2
aa(lp2570
I5
aI-1
aI4
aI-2
aI3
aI2
aI4
aI1
aa(lp2571
I4
aI-2
aI3
aI2
aI4
aI1
aI5
aI-5
aa(lp2572
I3
aI2
aI4
aI1
aI5
aI-5
aI2
aI0
aa(lp2573
I4
aI1
aI5
aI-5
aI2
aI0
aI2
aI-3
aa(lp2574
I5
aI-5
aI2
aI0
aI2
aI-3
aI1
aI1
aa(lp2575
I2
aI0
aI2
aI-3
aI1
aI1
aI2
aI2
aa(lp2576
I2
aI-3
aI1
aI1
aI2
aI2
aI3
aI-2
aa(lp2577
I1
aI1
aI2
aI2
aI3
aI-2
aI2
aI-1
aa(lp2578
I2
aI2
aI3
aI-2
aI2
aI-1
aI1
aI-2
aa(lp2579
I3
aI-2
aI2
aI-1
aI1
aI-2
aI2
aI-2
aa(lp2580
I2
aI-1
aI1
aI-2
aI2
aI-2
aI1
aI2
aa(lp2581
I1
aI-2
aI2
aI-2
aI1
aI2
aI2
aI2
aa(lp2582
I2
aI-2
aI1
aI2
aI2
aI2
aI3
aI1
aa(lp2583
I1
aI2
aI2
aI2
aI3
aI1
aI1
aI2
aa(lp2584
I2
aI2
aI3
aI1
aI1
aI2
aI2
aI2
aa(lp2585
I3
aI1
aI1
aI2
aI2
aI2
aI3
aI2
aa(lp2586
I1
aI2
aI2
aI2
aI3
aI2
aI4
aI1
aa(lp2587
I2
aI2
aI3
aI2
aI4
aI1
aI5
aI-5
aa(lp2588
I3
aI2
aI4
aI1
aI5
aI-5
aI2
aI-2
aa(lp2589
I4
aI1
aI5
aI-5
aI2
aI-2
aI1
aI0
aa(lp2590
I5
aI-5
aI2
aI-2
aI1
aI0
aI3
aI-1
aa(lp2591
I2
aI-2
aI1
aI0
aI3
aI-1
aI2
aI-2
aa(lp2592
I1
aI0
aI3
aI-1
aI2
aI-2
aI1
aI5
aa(lp2593
I3
aI-1
aI2
aI-2
aI1
aI5
aI3
aI0
aa(lp2594
I2
aI-2
aI1
aI5
aI3
aI0
aI3
aI4
aa(lp2595
I1
aI5
aI3
aI0
aI3
aI4
aI4
aI0
aa(lp2596
I3
aI0
aI3
aI4
aI4
aI0
aI4
aI0
aa(lp2597
I3
aI4
aI4
aI0
aI4
aI0
aI4
aI0
aa(lp2598
I4
aI0
aI4
aI0
aI4
aI0
aI4
aI1
aa(lp2599
I4
aI0
aI4
aI0
aI4
aI1
aI5
aI-1
aa(lp2600
I4
aI0
aI4
aI1
aI5
aI-1
aI4
aI-2
aa(lp2601
I4
aI1
aI5
aI-1
aI4
aI-2
aI3
aI-2
aa(lp2602
I5
aI-1
aI4
aI-2
aI3
aI-2
aI2
aI-2
aa(lp2603
I4
aI-2
aI3
aI-2
aI2
aI-2
aI1
aI-1
aa(lp2604
I3
aI-2
aI2
aI-2
aI1
aI-1
aI3
aI-2
aa(lp2605
I2
aI-2
aI1
aI-1
aI3
aI-2
aI2
aI-2
aa(lp2606
I1
aI-1
aI3
aI-2
aI2
aI-2
aI1
aI2
aa(lp2607
I3
aI-2
aI2
aI-2
aI1
aI2
aI2
aI0
aa(lp2608
I2
aI-2
aI1
aI2
aI2
aI0
aI2
aI5
aa(lp2609
I1
aI2
aI2
aI0
aI2
aI5
aI4
aI-2
aa(lp2610
I2
aI0
aI2
aI5
aI4
aI-2
aI3
aI-1
aa(lp2611
I2
aI5
aI4
aI-2
aI3
aI-1
aI2
aI3
aa(lp2612
I4
aI-2
aI3
aI-1
aI2
aI3
aI4
aI4
aa(lp2613
I3
aI-1
aI2
aI3
aI4
aI4
aI5
aI0
aa(lp2614
I2
aI3
aI4
aI4
aI5
aI0
aI5
aI0
aa(lp2615
I4
aI4
aI5
aI0
aI5
aI0
aI4
aI0
aa(lp2616
I5
aI0
aI5
aI0
aI4
aI0
aI4
aI1
aa(lp2617
I5
aI0
aI4
aI0
aI4
aI1
aI5
aI-1
aa(lp2618
I4
aI0
aI4
aI1
aI5
aI-1
aI4
aI-2
aa(lp2619
I4
aI1
aI5
aI-1
aI4
aI-2
aI3
aI-2
aa(lp2620
I5
aI-1
aI4
aI-2
aI3
aI-2
aI2
aI-2
aa(lp2621
I4
aI-2
aI3
aI-2
aI2
aI-2
aI1
aI-1
aa(lp2622
I3
aI-2
aI2
aI-2
aI1
aI-1
aI3
aI-2
aa(lp2623
I2
aI-2
aI1
aI-1
aI3
aI-2
aI2
aI-2
aa(lp2624
I1
aI-1
aI3
aI-2
aI2
aI-2
aI1
aI2
aa(lp2625
I3
aI-2
aI2
aI-2
aI1
aI2
aI2
aI5
aa(lp2626
I2
aI-2
aI1
aI2
aI2
aI5
aI5
aI-2
aa(lp2627
I1
aI2
aI2
aI5
aI5
aI-2
aI4
aI-3
aa(lp2628
I2
aI5
aI5
aI-2
aI4
aI-3
aI2
aI-2
aa(lp2629
I5
aI-2
aI4
aI-3
aI2
aI-2
aI1
aI4
aa(lp2630
I4
aI-3
aI2
aI-2
aI1
aI4
aI3
aI-4
aa(lp2631
I2
aI-2
aI1
aI4
aI3
aI-4
aI1
aI0
aa(lp2632
I3
aI3
aI5
aI-2
aI4
aI-1
aI3
aI-2
aa(lp2633
I5
aI-2
aI4
aI-1
aI3
aI-2
aI2
aI-2
aa(lp2634
I4
aI-1
aI3
aI-2
aI2
aI-2
aI1
aI-1
aa(lp2635
I3
aI-2
aI2
aI-2
aI1
aI-1
aI4
aI-2
aa(lp2636
I2
aI-2
aI1
aI-1
aI4
aI-2
aI3
aI-2
aa(lp2637
I1
aI-1
aI4
aI-2
aI3
aI-2
aI2
aI-2
aa(lp2638
I4
aI-2
aI3
aI-2
aI2
aI-2
aI1
aI-1
aa(lp2639
I3
aI-2
aI2
aI-2
aI1
aI-1
aI3
aI-2
aa(lp2640
I2
aI-2
aI1
aI-1
aI3
aI-2
aI2
aI-2
aa(lp2641
I1
aI-1
aI3
aI-2
aI2
aI-2
aI1
aI4
aa(lp2642
I3
aI-2
aI2
aI-2
aI1
aI4
aI2
aI3
aa(lp2643
I2
aI-2
aI1
aI4
aI2
aI3
aI3
aI5
aa(lp2644
I1
aI4
aI2
aI3
aI3
aI5
aI5
aI-5
aa(lp2645
I2
aI3
aI3
aI5
aI5
aI-5
aI3
aI-3
aa(lp2646
I3
aI5
aI5
aI-5
aI3
aI-3
aI2
aI-4
aa(lp2647
I1
aI4
aI2
aI3
aI3
aI5
aI5
aI-5
aa(lp2648
I2
aI3
aI3
aI5
aI5
aI-5
aI3
aI-3
aa(lp2649
I3
aI5
aI5
aI-5
aI3
aI-3
aI2
aI-4
aa(lp2650
I3
aI0
aI3
aI-1
aI2
aI0
aI2
aI1
aa(lp2651
I3
aI-1
aI2
aI0
aI2
aI1
aI3
aI0
aa(lp2652
I2
aI0
aI2
aI1
aI3
aI0
aI3
aI2
aa(lp2653
I2
aI1
aI3
aI0
aI3
aI2
aI4
aI0
aa(lp2654
I3
aI0
aI3
aI2
aI4
aI0
aI3
aI2
aa(lp2655
I3
aI2
aI4
aI0
aI3
aI2
aI3
aI3
aa(lp2656
I4
aI0
aI3
aI2
aI3
aI3
aI5
aI-2
aa(lp2657
I3
aI2
aI3
aI3
aI5
aI-2
aI4
aI-1
aa(lp2658
I3
aI3
aI5
aI-2
aI4
aI-1
aI3
aI-2
aa(lp2659
I5
aI-2
aI4
aI-1
aI3
aI-2
aI2
aI-2
aa(lp2660
I4
aI-1
aI3
aI-2
aI2
aI-2
aI1
aI-1
aa(lp2661
I3
aI-2
aI2
aI-2
aI1
aI-1
aI2
aI1
aa(lp2662
I2
aI-2
aI1
aI-1
aI2
aI1
aI3
aI2
aa(lp2663
I1
aI-1
aI2
aI1
aI3
aI2
aI4
aI2
aa(lp2664
I2
aI1
aI3
aI2
aI4
aI2
aI5
aI-2
aa(lp2665
I3
aI2
aI4
aI2
aI5
aI-2
aI4
aI-3
aa(lp2666
I4
aI2
aI5
aI-2
aI4
aI-3
aI2
aI-4
aa(lp2667
I5
aI-2
aI4
aI-3
aI2
aI-4
aI1
aI5
aa(lp2668
I4
aI-3
aI2
aI-4
aI1
aI5
aI3
aI0
aa(lp2669
I2
aI-4
aI1
aI5
aI3
aI0
aI3
aI-1
aa(lp2670
I1
aI5
aI3
aI0
aI3
aI-1
aI2
aI0
aa(lp2671
I3
aI0
aI3
aI-1
aI2
aI0
aI2
aI1
aa(lp2672
I3
aI-1
aI2
aI0
aI2
aI1
aI3
aI0
aa(lp2673
I2
aI0
aI2
aI1
aI3
aI0
aI3
aI2
aa(lp2674
I2
aI1
aI3
aI0
aI3
aI2
aI4
aI0
aa(lp2675
I3
aI0
aI3
aI2
aI4
aI0
aI4
aI2
aa(lp2676
I3
aI2
aI4
aI0
aI4
aI2
aI3
aI3
aa(lp2677
I4
aI0
aI4
aI2
aI3
aI3
aI5
aI-3
aa(lp2678
I4
aI2
aI3
aI3
aI5
aI-3
aI3
aI-4
aa(lp2679
I3
aI3
aI5
aI-3
aI3
aI-4
aI2
aI-1
aa(lp2680
I5
aI-3
aI3
aI-4
aI2
aI-1
aI1
aI6
aa(lp2681
I3
aI-4
aI2
aI-1
aI1
aI6
aI5
aI-3
aa(lp2682
I2
aI-1
aI1
aI6
aI5
aI-3
aI3
aI-3
aa(lp2683
I1
aI6
aI5
aI-3
aI3
aI-3
aI1
aI1
aa(lp2684
I5
aI-3
aI3
aI-3
aI1
aI1
aI2
aI0
aa(lp2685
I3
aI-3
aI1
aI1
aI2
aI0
aI2
aI0
aa(lp2686
I1
aI1
aI2
aI0
aI2
aI0
aI2
aI0
aa(lp2687
I2
aI0
aI2
aI0
aI2
aI0
aI2
aI0
aa(lp2688
I2
aI0
aI2
aI0
aI2
aI0
aI2
aI0
aa(lp2689
I2
aI0
aI2
aI0
aI2
aI0
aI2
aI-1
aa(lp2690
I2
aI0
aI2
aI0
aI2
aI-1
aI1
aI1
aa(lp2691
I2
aI0
aI2
aI-1
aI1
aI1
aI2
aI2
aa(lp2692
I2
aI-1
aI1
aI1
aI2
aI2
aI3
aI-3
aa(lp2693
I1
aI1
aI2
aI2
aI3
aI-3
aI1
aI3
aa(lp2694
I2
aI2
aI3
aI-3
aI1
aI3
aI3
aI5
aa(lp2695
I3
aI-3
aI1
aI3
aI3
aI5
aI5
aI-1
aa(lp2696
I1
aI3
aI3
aI5
aI5
aI-1
aI2
aI0
aa(lp2697
I3
aI5
aI5
aI-1
aI2
aI0
aI2
aI0
aa(lp2698
I5
aI-1
aI2
aI0
aI2
aI0
aI2
aI-4
aa(lp2699
I2
aI0
aI2
aI0
aI2
aI-4
aI1
aI2
aa(lp2700
I2
aI0
aI2
aI-4
aI1
aI2
aI2
aI2
aa(lp2701
I2
aI-4
aI1
aI2
aI2
aI2
aI3
aI1
aa(lp2702
I1
aI2
aI2
aI2
aI3
aI1
aI4
aI0
aa(lp2703
I2
aI2
aI3
aI1
aI4
aI0
aI4
aI-2
aa(lp2704
I3
aI1
aI4
aI0
aI4
aI-2
aI3
aI0
aa(lp2705
I4
aI0
aI4
aI-2
aI3
aI0
aI3
aI0
aa(lp2706
I4
aI-2
aI3
aI0
aI3
aI0
aI3
aI4
aa(lp2707
I3
aI0
aI3
aI0
aI3
aI4
aI5
aI-2
aa(lp2708
I3
aI0
aI3
aI4
aI5
aI-2
aI4
aI-2
aa(lp2709
I3
aI4
aI5
aI-2
aI4
aI-2
aI3
aI-1
aa(lp2710
I5
aI-2
aI4
aI-2
aI3
aI-1
aI2
aI3
aa(lp2711
I4
aI-2
aI3
aI-1
aI2
aI3
aI4
aI-2
aa(lp2712
I3
aI-1
aI2
aI3
aI4
aI-2
aI3
aI-1
aa(lp2713
I2
aI3
aI4
aI-2
aI3
aI-1
aI2
aI-2
aa(lp2714
I4
aI-2
aI3
aI-1
aI2
aI-2
aI1
aI3
aa(lp2715
I3
aI-1
aI2
aI-2
aI1
aI3
aI3
aI-1
aa(lp2716
I2
aI-2
aI1
aI3
aI3
aI-1
aI2
aI-2
aa(lp2717
I1
aI3
aI3
aI-1
aI2
aI-2
aI1
aI-2
aa(lp2718
I3
aI-1
aI2
aI-2
aI1
aI-2
aI2
aI4
aa(lp2719
I2
aI-2
aI1
aI-2
aI2
aI4
aI4
aI-2
aa(lp2720
I1
aI-2
aI2
aI4
aI4
aI-2
aI3
aI-2
aa(lp2721
I2
aI4
aI4
aI-2
aI3
aI-2
aI2
aI-1
aa(lp2722
I4
aI-2
aI3
aI-2
aI2
aI-1
aI1
aI3
aa(lp2723
I3
aI-2
aI2
aI-1
aI1
aI3
aI3
aI-2
aa(lp2724
I2
aI-1
aI1
aI3
aI3
aI-2
aI2
aI-1
aa(lp2725
I1
aI3
aI3
aI-2
aI2
aI-1
aI1
aI1
aa(lp2726
I3
aI-2
aI2
aI-1
aI1
aI1
aI2
aI0
aa(lp2727
I2
aI-1
aI1
aI1
aI2
aI0
aI2
aI0
aa(lp2728
I5
aI-5
aI1
aI2
aI2
aI2
aI3
aI1
aa(lp2729
I1
aI2
aI2
aI2
aI3
aI1
aI5
aI-5
aa(lp2730
I2
aI2
aI3
aI1
aI5
aI-5
aI1
aI2
aa(lp2731
I3
aI1
aI5
aI-5
aI1
aI2
aI2
aI2
aa(lp2732
I5
aI-5
aI1
aI2
aI2
aI2
aI3
aI1
aa(lp2733
I1
aI2
aI2
aI2
aI3
aI1
aI5
aI-5
aa(lp2734
I2
aI2
aI3
aI1
aI5
aI-5
aI1
aI2
aa(lp2735
I3
aI1
aI5
aI-5
aI1
aI2
aI2
aI2
aa(lp2736
I5
aI-5
aI1
aI2
aI2
aI2
aI3
aI1
aa(lp2737
I1
aI2
aI2
aI2
aI3
aI1
aI1
aI2
aa(lp2738
I2
aI2
aI3
aI1
aI1
aI2
aI2
aI2
aa(lp2739
I3
aI1
aI1
aI2
aI2
aI2
aI3
aI1
aa(lp2740
I1
aI2
aI2
aI2
aI3
aI1
aI4
aI2
aa(lp2741
I2
aI2
aI3
aI1
aI4
aI2
aI5
aI-7
aa(lp2742
I3
aI1
aI4
aI2
aI5
aI-7
aI1
aI2
aa(lp2743
I4
aI2
aI5
aI-7
aI1
aI2
aI2
aI2
aa(lp2744
I5
aI-7
aI1
aI2
aI2
aI2
aI3
aI1
aa(lp2745
I1
aI2
aI2
aI2
aI3
aI1
aI1
aI2
aa(lp2746
I2
aI2
aI3
aI1
aI1
aI2
aI2
aI2
aa(lp2747
I3
aI1
aI1
aI2
aI2
aI2
aI3
aI2
aa(lp2748
I1
aI2
aI2
aI2
aI3
aI2
aI4
aI1
aa(lp2749
I1
aI2
aI2
aI2
aI3
aI1
aI4
aI2
aa(lp2750
I2
aI2
aI3
aI1
aI4
aI2
aI5
aI-2
aa(lp2751
I3
aI1
aI4
aI2
aI5
aI-2
aI4
aI-1
aa(lp2752
I4
aI2
aI5
aI-2
aI4
aI-1
aI3
aI-2
aa(lp2753
I5
aI-2
aI4
aI-1
aI3
aI-2
aI2
aI-2
aa(lp2754
I4
aI-1
aI3
aI-2
aI2
aI-2
aI1
aI2
aa(lp2755
I3
aI-2
aI2
aI-2
aI1
aI2
aI2
aI2
aa(lp2756
I2
aI-2
aI1
aI2
aI2
aI2
aI3
aI1
aa(lp2757
I1
aI2
aI2
aI2
aI3
aI1
aI4
aI2
aa(lp2758
I2
aI2
aI3
aI1
aI4
aI2
aI5
aI-2
aa(lp2759
I3
aI1
aI4
aI2
aI5
aI-2
aI1
aI2
aa(lp2760
I4
aI2
aI5
aI-2
aI1
aI2
aI2
aI2
aa(lp2761
I5
aI-2
aI1
aI2
aI2
aI2
aI3
aI1
aa(lp2762
I1
aI2
aI2
aI2
aI3
aI1
aI4
aI2
aa(lp2763
I2
aI2
aI3
aI1
aI4
aI2
aI5
aI-2
aa(lp2764
I3
aI1
aI4
aI2
aI5
aI-2
aI4
aI-1
aa(lp2765
I4
aI2
aI5
aI-2
aI4
aI-1
aI3
aI-2
aa(lp2766
I5
aI-2
aI4
aI-1
aI3
aI-2
aI2
aI-2
aa(lp2767
I4
aI-1
aI3
aI-2
aI2
aI-2
aI1
aI2
aa(lp2768
I3
aI-2
aI2
aI-2
aI1
aI2
aI2
aI2
aa(lp2769
I2
aI-2
aI1
aI2
aI2
aI2
aI3
aI1
aa(lp2770
I1
aI2
aI2
aI2
aI3
aI1
aI4
aI2
aa(lp2771
I2
aI2
aI3
aI1
aI4
aI2
aI5
aI-2
aa(lp2772
I3
aI1
aI4
aI2
aI5
aI-2
aI4
aI-1
aa(lp2773
I4
aI2
aI5
aI-2
aI4
aI-1
aI3
aI-2
aa(lp2774
I5
aI-2
aI4
aI-1
aI3
aI-2
aI2
aI2
aa(lp2775
I4
aI-1
aI3
aI-2
aI2
aI2
aI3
aI1
aa(lp2776
I3
aI-2
aI2
aI2
aI3
aI1
aI4
aI-1
aa(lp2777
I2
aI2
aI3
aI1
aI4
aI-1
aI3
aI-2
aa(lp2778
I3
aI1
aI4
aI-1
aI3
aI-2
aI2
aI-2
aa(lp2779
I4
aI-1
aI3
aI-2
aI2
aI-2
aI1
aI2
aa(lp2780
I3
aI-2
aI2
aI-2
aI1
aI2
aI2
aI2
aa(lp2781
I2
aI-2
aI1
aI2
aI2
aI2
aI3
aI-2
aa(lp2782
I1
aI2
aI2
aI2
aI3
aI-2
aI1
aI9
aa(lp2783
I2
aI2
aI3
aI-2
aI1
aI9
aI5
aI-2
aa(lp2784
I3
aI-2
aI1
aI9
aI5
aI-2
aI4
aI-2
aa(lp2785
I1
aI9
aI5
aI-2
aI4
aI-2
aI3
aI-2
aa(lp2786
I5
aI-2
aI4
aI-2
aI3
aI-2
aI2
aI-1
aa(lp2787
I4
aI-2
aI3
aI-2
aI2
aI-1
aI1
aI-2
aa(lp2788
I3
aI-2
aI2
aI-1
aI1
aI-2
aI2
aI-2
aa(lp2789
I2
aI-1
aI1
aI-2
aI2
aI-2
aI1
aI0
aa(lp2790
I1
aI4
aI2
aI3
aI3
aI5
aI5
aI-5
aa(lp2791
I2
aI3
aI3
aI5
aI5
aI-5
aI3
aI-5
aa(lp2792
I3
aI5
aI5
aI-5
aI3
aI-5
aI1
aI5
aa(lp2793
I5
aI-5
aI3
aI-5
aI1
aI5
aI2
aI4
aa(lp2794
I3
aI-5
aI1
aI5
aI2
aI4
aI4
aI3
aa(lp2795
I1
aI5
aI2
aI4
aI4
aI3
aI5
aI-7
aa(lp2796
I2
aI4
aI4
aI3
aI5
aI-7
aI2
aI-3
aa(lp2797
I4
aI3
aI5
aI-7
aI2
aI-3
aI1
aI3
aa(lp2798
I5
aI-7
aI2
aI-3
aI1
aI3
aI2
aI5
aa(lp2799
I2
aI-3
aI1
aI3
aI2
aI5
aI3
aI4
aa(lp2800
I1
aI3
aI2
aI5
aI3
aI4
aI5
aI-9
aa(lp2801
I2
aI5
aI3
aI4
aI5
aI-9
aI1
aI5
aa(lp2802
I3
aI4
aI5
aI-9
aI1
aI5
aI2
aI4
aa(lp2803
I5
aI-9
aI1
aI5
aI2
aI4
aI3
aI3
aa(lp2804
I1
aI5
aI2
aI4
aI3
aI3
aI5
aI-5
aa(lp2805
I2
aI4
aI3
aI3
aI5
aI-5
aI2
aI2
aa(lp2806
I3
aI3
aI5
aI-5
aI2
aI2
aI3
aI1
aa(lp2807
I5
aI-5
aI2
aI2
aI3
aI1
aI4
aI-1
aa(lp2808
I2
aI2
aI3
aI1
aI4
aI-1
aI3
aI-2
aa(lp2809
I3
aI1
aI4
aI-1
aI3
aI-2
aI2
aI-2
aa(lp2810
I4
aI-1
aI3
aI-2
aI2
aI-2
aI1
aI-1
aa(lp2811
I3
aI-2
aI2
aI-2
aI1
aI-1
aI4
aI-2
aa(lp2812
I2
aI-2
aI1
aI-1
aI4
aI-2
aI3
aI-2
aa(lp2813
I1
aI-1
aI4
aI-2
aI3
aI-2
aI2
aI2
aa(lp2814
I4
aI-2
aI3
aI-2
aI2
aI2
aI3
aI-2
aa(lp2815
I3
aI-2
aI2
aI2
aI3
aI-2
aI2
aI2
aa(lp2816
I2
aI2
aI3
aI-2
aI2
aI2
aI3
aI-2
aa(lp2817
I3
aI-2
aI2
aI2
aI3
aI-2
aI2
aI-2
aa(lp2818
I2
aI2
aI3
aI-2
aI2
aI-2
aI1
aI-1
aa(lp2819
I3
aI-2
aI2
aI-2
aI1
aI-1
aI3
aI-2
aa(lp2820
I2
aI-2
aI1
aI-1
aI3
aI-2
aI2
aI2
aa(lp2821
I1
aI-1
aI3
aI-2
aI2
aI2
aI3
aI-4
aa(lp2822
I3
aI-2
aI2
aI2
aI3
aI-4
aI1
aI4
aa(lp2823
I2
aI2
aI3
aI-4
aI1
aI4
aI2
aI3
aa(lp2824
I3
aI-4
aI1
aI4
aI2
aI3
aI3
aI5
aa(lp2825
I1
aI4
aI2
aI3
aI3
aI5
aI5
aI-5
aa(lp2826
I2
aI3
aI3
aI5
aI5
aI-5
aI3
aI-5
aa(lp2827
I3
aI5
aI5
aI-5
aI3
aI-5
aI1
aI5
aa(lp2828
I5
aI-5
aI3
aI-5
aI1
aI5
aI2
aI4
aa(lp2829
I3
aI-5
aI1
aI5
aI2
aI4
aI4
aI3
aa(lp2830
I1
aI5
aI2
aI4
aI4
aI3
aI5
aI-7
aa(lp2831
I2
aI4
aI4
aI3
aI5
aI-7
aI2
aI9
aa(lp2832
I4
aI3
aI5
aI-7
aI2
aI9
aI3
aI3
aa(lp2833
I5
aI-7
aI2
aI9
aI3
aI3
aI5
aI-1
aa(lp2834
I2
aI9
aI3
aI3
aI5
aI-1
aI4
aI-2
aa(lp2835
I3
aI3
aI5
aI-1
aI4
aI-2
aI3
aI-2
aa(lp2836
I5
aI-1
aI4
aI-2
aI3
aI-2
aI2
aI-2
aa(lp2837
I4
aI-2
aI3
aI-2
aI2
aI-2
aI1
aI-1
aa(lp2838
I3
aI-2
aI2
aI-2
aI1
aI-1
aI3
aI3
aa(lp2839
I2
aI-2
aI1
aI-1
aI3
aI3
aI5
aI-2
aa(lp2840
I1
aI-1
aI3
aI3
aI5
aI-2
aI4
aI-1
aa(lp2841
I3
aI3
aI5
aI-2
aI4
aI-1
aI3
aI-2
aa(lp2842
I5
aI-2
aI4
aI-1
aI3
aI-2
aI2
aI3
aa(lp2843
I4
aI-1
aI3
aI-2
aI2
aI3
aI4
aI-1
aa(lp2844
I3
aI-2
aI2
aI3
aI4
aI-1
aI3
aI-2
aa(lp2845
I2
aI3
aI4
aI-1
aI3
aI-2
aI2
aI-2
aa(lp2846
I4
aI-1
aI3
aI-2
aI2
aI-2
aI1
aI2
aa(lp2847
I3
aI-2
aI2
aI-2
aI1
aI2
aI2
aI2
aa(lp2848
I2
aI-2
aI1
aI2
aI2
aI2
aI3
aI1
aa(lp2849
I1
aI2
aI2
aI2
aI3
aI1
aI1
aI2
aa(lp2850
I2
aI2
aI3
aI1
aI1
aI2
aI2
aI2
aa(lp2851
I3
aI1
aI1
aI2
aI2
aI2
aI3
aI2
aa(lp2852
I1
aI2
aI2
aI2
aI3
aI2
aI4
aI1
aa(lp2853
I2
aI2
aI3
aI2
aI4
aI1
aI5
aI-12
aa(lp2854
I1
aI4
aI2
aI3
aI3
aI5
aI5
aI-5
aa(lp2855
I2
aI3
aI3
aI5
aI5
aI-5
aI3
aI0
aa(lp2856
I3
aI5
aI5
aI-5
aI3
aI0
aI3
aI2
aa(lp2857
I5
aI-5
aI3
aI0
aI3
aI2
aI1
aI3
aa(lp2858
I3
aI0
aI3
aI2
aI1
aI3
aI2
aI5
aa(lp2859
I3
aI2
aI1
aI3
aI2
aI5
aI4
aI4
aa(lp2860
I1
aI3
aI2
aI5
aI4
aI4
aI5
aI-4
aa(lp2861
I2
aI5
aI4
aI4
aI5
aI-4
aI4
aI-1
aa(lp2862
I4
aI4
aI5
aI-4
aI4
aI-1
aI3
aI3
aa(lp2863
I5
aI-4
aI4
aI-1
aI3
aI3
aI5
aI-1
aa(lp2864
I4
aI-1
aI3
aI3
aI5
aI-1
aI4
aI1
aa(lp2865
I3
aI3
aI5
aI-1
aI4
aI1
aI5
aI-2
aa(lp2866
I5
aI-1
aI4
aI1
aI5
aI-2
aI4
aI-1
aa(lp2867
I4
aI1
aI5
aI-2
aI4
aI-1
aI3
aI-2
aa(lp2868
I5
aI-2
aI4
aI-1
aI3
aI-2
aI2
aI-2
aa(lp2869
I4
aI-1
aI3
aI-2
aI2
aI-2
aI1
aI-1
aa(lp2870
I3
aI-2
aI2
aI-2
aI1
aI-1
aI2
aI1
aa(lp2871
I2
aI-2
aI1
aI-1
aI2
aI1
aI1
aI2
aa(lp2872
I1
aI-1
aI2
aI1
aI1
aI2
aI3
aI2
aa(lp2873
I2
aI1
aI1
aI2
aI3
aI2
aI4
aI1
aa(lp2874
I1
aI2
aI3
aI2
aI4
aI1
aI1
aI2
aa(lp2875
I3
aI2
aI4
aI1
aI1
aI2
aI2
aI2
aa(lp2876
I4
aI1
aI1
aI2
aI2
aI2
aI3
aI2
aa(lp2877
I1
aI2
aI2
aI2
aI3
aI2
aI4
aI1
aa(lp2878
I2
aI2
aI3
aI2
aI4
aI1
aI1
aI2
aa(lp2879
I3
aI2
aI4
aI1
aI1
aI2
aI2
aI2
aa(lp2880
I4
aI1
aI1
aI2
aI2
aI2
aI3
aI1
aa(lp2881
I1
aI2
aI2
aI2
aI3
aI1
aI4
aI2
aa(lp2882
I2
aI2
aI3
aI1
aI4
aI2
aI5
aI-3
aa(lp2883
I3
aI1
aI4
aI2
aI5
aI-3
aI3
aI3
aa(lp2884
I4
aI2
aI5
aI-3
aI3
aI3
aI5
aI-3
aa(lp2885
I5
aI-3
aI3
aI3
aI5
aI-3
aI3
aI-4
aa(lp2886
I5
aI-1
aI4
aI-2
aI3
aI-2
aI2
aI-2
aa(lp2887
I4
aI-2
aI3
aI-2
aI2
aI-2
aI1
aI2
aa(lp2888
I3
aI-2
aI2
aI-2
aI1
aI2
aI3
aI-2
aa(lp2889
I2
aI-2
aI1
aI2
aI3
aI-2
aI2
aI-1
aa(lp2890
I1
aI2
aI3
aI-2
aI2
aI-1
aI1
aI3
aa(lp2891
I3
aI-2
aI2
aI-1
aI1
aI3
aI3
aI-3
aa(lp2892
I2
aI-1
aI1
aI3
aI3
aI-3
aI2
aI-2
aa(lp2893
I4
aI-1
aI3
aI-2
aI2
aI-2
aI1
aI0
aa(lp2894
I3
aI-2
aI2
aI-2
aI1
aI0
aI1
aI0
aa(lp2895
I5
aI-5
aI2
aI-3
aI1
aI3
aI2
aI0
aa(lp2896
I2
aI-3
aI1
aI3
aI2
aI0
aI3
aI0
aa(lp2897
I1
aI3
aI2
aI0
aI3
aI0
aI4
aI2
aa(lp2898
I2
aI0
aI3
aI0
aI4
aI2
aI5
aI-2
aa(lp2899
I3
aI0
aI4
aI2
aI5
aI-2
aI4
aI-3
aa(lp2900
I4
aI2
aI5
aI-2
aI4
aI-3
aI2
aI-4
aa(lp2901
I5
aI-2
aI4
aI-3
aI2
aI-4
aI1
aI4
aa(lp2902
I4
aI-3
aI2
aI-4
aI1
aI4
aI2
aI-2
aa(lp2903
I2
aI-4
aI1
aI4
aI2
aI-2
aI1
aI5
aa(lp2904
I1
aI4
aI2
aI-2
aI1
aI5
aI4
aI4
aa(lp2905
I2
aI-2
aI1
aI5
aI4
aI4
aI5
aI-2
aa(lp2906
I1
aI5
aI4
aI4
aI5
aI-2
aI4
aI-2
aa(lp2907
I4
aI4
aI5
aI-2
aI4
aI-2
aI3
aI-1
aa(lp2908
I5
aI-2
aI4
aI-2
aI3
aI-1
aI2
aI0
aa(lp2909
I4
aI-2
aI3
aI-1
aI2
aI0
aI2
aI6
aa(lp2910
I3
aI-1
aI2
aI0
aI2
aI6
aI5
aI-3
aa(lp2911
I2
aI0
aI2
aI6
aI5
aI-3
aI3
aI-3
aa(lp2912
I2
aI6
aI5
aI-3
aI3
aI-3
aI2
aI1
aa(lp2913
I5
aI-3
aI3
aI-3
aI2
aI1
aI1
aI0
aa(lp2914
I3
aI-3
aI2
aI1
aI1
aI0
aI1
aI0
aa(lp2915
I2
aI1
aI1
aI0
aI1
aI0
aI1
aI7
aa(lp2916
I1
aI0
aI1
aI0
aI1
aI7
aI5
aI-3
aa(lp2917
I1
aI0
aI1
aI7
aI5
aI-3
aI3
aI-4
aa(lp2918
I1
aI7
aI5
aI-3
aI3
aI-4
aI1
aI9
aa(lp2919
I5
aI-3
aI3
aI-4
aI1
aI9
aI5
aI0
aa(lp2920
I5
aI-2
aI4
aI2
aI5
aI-2
aI4
aI-5
aa(lp2921
I4
aI2
aI5
aI-2
aI4
aI-5
aI2
aI0
aa(lp2922
I5
aI-2
aI4
aI-5
aI2
aI0
aI2
aI7
aa(lp2923
I4
aI-5
aI2
aI0
aI2
aI7
aI5
aI-2
aa(lp2924
I2
aI0
aI2
aI7
aI5
aI-2
aI4
aI2
aa(lp2925
I2
aI7
aI5
aI-2
aI4
aI2
aI5
aI-2
aa(lp2926
I5
aI-2
aI4
aI2
aI5
aI-2
aI4
aI-3
aa(lp2927
I4
aI2
aI5
aI-2
aI4
aI-3
aI1
aI0
aa(lp2928
I5
aI-2
aI4
aI-3
aI1
aI0
aI1
aI5
aa(lp2929
I4
aI-3
aI1
aI0
aI1
aI5
aI5
aI-2
aa(lp2930
I1
aI0
aI1
aI5
aI5
aI-2
aI4
aI2
aa(lp2931
I1
aI5
aI5
aI-2
aI4
aI2
aI5
aI-2
aa(lp2932
I5
aI-2
aI4
aI2
aI5
aI-2
aI4
aI-8
aa(lp2933
I4
aI-2
aI3
aI-2
aI2
aI-2
aI1
aI-1
aa(lp2934
I3
aI-2
aI2
aI-2
aI1
aI-1
aI2
aI5
aa(lp2935
I2
aI-2
aI1
aI-1
aI2
aI5
aI4
aI-2
aa(lp2936
I1
aI-1
aI2
aI5
aI4
aI-2
aI3
aI2
aa(lp2937
I2
aI5
aI4
aI-2
aI3
aI2
aI4
aI-2
aa(lp2938
I4
aI-2
aI3
aI2
aI4
aI-2
aI3
aI-5
aa(lp2939
I3
aI2
aI4
aI-2
aI3
aI-5
aI1
aI7
aa(lp2940
I4
aI-2
aI3
aI-5
aI1
aI7
aI4
aI-2
aa(lp2941
I3
aI-5
aI1
aI7
aI4
aI-2
aI3
aI2
aa(lp2942
I1
aI7
aI4
aI-2
aI3
aI2
aI4
aI-2
aa(lp2943
I4
aI-2
aI3
aI2
aI4
aI-2
aI3
aI-7
aa(lp2944
I1
aI5
aI3
aI4
aI5
aI-4
aI1
aI-1
aa(lp2945
I3
aI4
aI5
aI-4
aI1
aI-1
aI1
aI6
aa(lp2946
I5
aI-4
aI1
aI-1
aI1
aI6
aI5
aI0
aa(lp2947
I1
aI-1
aI1
aI6
aI5
aI0
aI5
aI-3
aa(lp2948
I1
aI6
aI5
aI0
aI5
aI-3
aI3
aI-3
aa(lp2949
I5
aI0
aI5
aI-3
aI3
aI-3
aI2
aI-4
aa(lp2950
I5
aI-3
aI3
aI-3
aI2
aI-4
aI1
aI4
aa(lp2951
I3
aI-3
aI2
aI-4
aI1
aI4
aI2
aI3
aa(lp2952
I2
aI-4
aI1
aI4
aI2
aI3
aI3
aI5
aa(lp2953
I1
aI4
aI2
aI3
aI3
aI5
aI5
aI-2
aa(lp2954
I2
aI3
aI3
aI5
aI5
aI-2
aI4
aI-1
aa(lp2955
I3
aI5
aI5
aI-2
aI4
aI-1
aI3
aI-2
aa(lp2956
I5
aI-2
aI4
aI-1
aI3
aI-2
aI2
aI0
aa(lp2957
I4
aI-1
aI3
aI-2
aI2
aI0
aI2
aI0
aa(lp2958
I3
aI-2
aI2
aI0
aI2
aI0
aI2
aI2
aa(lp2959
I2
aI0
aI2
aI0
aI2
aI2
aI3
aI-2
aa(lp2960
I2
aI0
aI2
aI2
aI3
aI-2
aI1
aI0
aa(lp2961
I2
aI2
aI3
aI-2
aI1
aI0
aI1
aI5
aa(lp2962
I3
aI-2
aI1
aI0
aI1
aI5
aI5
aI-3
aa(lp2963
I1
aI0
aI1
aI5
aI5
aI-3
aI2
aI3
aa(lp2964
I1
aI5
aI5
aI-3
aI2
aI3
aI5
aI-8
aa(lp2965
I5
aI-3
aI2
aI3
aI5
aI-8
aI1
aI3
aa(lp2966
I2
aI3
aI5
aI-8
aI1
aI3
aI3
aI0
aa(lp2967
I5
aI-8
aI1
aI3
aI3
aI0
aI4
aI-2
aa(lp2968
I1
aI3
aI3
aI0
aI4
aI-2
aI3
aI-3
aa(lp2969
I3
aI0
aI4
aI-2
aI3
aI-3
aI2
aI-2
aa(lp2970
I4
aI-2
aI3
aI-3
aI2
aI-2
aI1
aI0
aa(lp2971
I3
aI-3
aI2
aI-2
aI1
aI0
aI1
aI0
aa(lp2972
I2
aI-2
aI1
aI0
aI1
aI0
aI1
aI0
aa(lp2973
I1
aI0
aI1
aI0
aI1
aI0
aI1
aI5
aa(lp2974
I1
aI0
aI1
aI0
aI1
aI5
aI2
aI4
aa(lp2975
I1
aI0
aI1
aI5
aI2
aI4
aI3
aI3
aa(lp2976
I1
aI5
aI2
aI4
aI3
aI3
aI5
aI-2
aa(lp2977
I2
aI4
aI3
aI3
aI5
aI-2
aI4
aI-1
aa(lp2978
I3
aI3
aI5
aI-2
aI4
aI-1
aI3
aI-2
aa(lp2979
I5
aI-2
aI4
aI-1
aI3
aI-2
aI2
aI-2
aa(lp2980
I4
aI-1
aI3
aI-2
aI2
aI-2
aI1
aI-1
aa(lp2981
I3
aI-2
aI2
aI-2
aI1
aI-1
aI3
aI-2
aa(lp2982
I2
aI-2
aI1
aI-1
aI3
aI-2
aI2
aI-2
aa(lp2983
I1
aI-1
aI3
aI-2
aI2
aI-2
aI1
aI5
aa(lp2984
I3
aI-2
aI2
aI-2
aI1
aI5
aI2
aI4
aa(lp2985
I2
aI-2
aI1
aI5
aI2
aI4
aI4
aI-2
aa(lp2986
I1
aI5
aI2
aI4
aI4
aI-2
aI3
aI-2
aa(lp2987
I2
aI4
aI4
aI-2
aI3
aI-2
aI2
aI0
aa(lp2988
I4
aI-2
aI3
aI-2
aI2
aI0
aI2
aI0
aa(lp2989
I3
aI-2
aI2
aI0
aI2
aI0
aI2
aI0
aa(lp2990
I1
aI2
aI2
aI2
aI3
aI1
aI1
aI2
aa(lp2991
I2
aI2
aI3
aI1
aI1
aI2
aI2
aI2
aa(lp2992
I3
aI1
aI1
aI2
aI2
aI2
aI3
aI-2
aa(lp2993
I1
aI2
aI2
aI2
aI3
aI-2
aI2
aI-2
aa(lp2994
I2
aI2
aI3
aI-2
aI2
aI-2
aI1
aI-1
aa(lp2995
I3
aI-2
aI2
aI-2
aI1
aI-1
aI3
aI-2
aa(lp2996
I2
aI-2
aI1
aI-1
aI3
aI-2
aI2
aI-2
aa(lp2997
I1
aI-1
aI3
aI-2
aI2
aI-2
aI1
aI-1
aa(lp2998
I3
aI-2
aI2
aI-2
aI1
aI-1
aI2
aI1
aa(lp2999
I2
aI-2
aI1
aI-1
aI2
aI1
aI1
aI2
aa(lp3000
I1
aI-1
aI2
aI1
aI1
aI2
aI2
aI2
aa(lp3001
I2
aI1
aI1
aI2
aI2
aI2
aI3
aI1
aa(lp3002
I1
aI2
aI2
aI2
aI3
aI1
aI1
aI2
aa(lp3003
I2
aI2
aI3
aI1
aI1
aI2
aI2
aI2
aa(lp3004
I3
aI1
aI1
aI2
aI2
aI2
aI3
aI-2
aa(lp3005
I1
aI2
aI2
aI2
aI3
aI-2
aI2
aI-2
aa(lp3006
I2
aI2
aI3
aI-2
aI2
aI-2
aI1
aI-1
aa(lp3007
I3
aI-2
aI2
aI-2
aI1
aI-1
aI3
aI-2
aa(lp3008
I2
aI-2
aI1
aI-1
aI3
aI-2
aI2
aI-2
aa(lp3009
I1
aI-1
aI3
aI-2
aI2
aI-2
aI1
aI-1
aa(lp3010
I3
aI-2
aI2
aI-2
aI1
aI-1
aI2
aI1
aa(lp3011
I2
aI-2
aI1
aI-1
aI2
aI1
aI1
aI4
aa(lp3012
I1
aI-1
aI2
aI1
aI1
aI4
aI3
aI-2
aa(lp3013
I2
aI1
aI1
aI4
aI3
aI-2
aI2
aI-2
aa(lp3014
I1
aI4
aI3
aI-2
aI2
aI-2
aI1
aI4
aa(lp3015
I3
aI-2
aI2
aI-2
aI1
aI4
aI3
aI-2
aa(lp3016
I2
aI-2
aI1
aI4
aI3
aI-2
aI2
aI-2
aa(lp3017
I1
aI4
aI3
aI-2
aI2
aI-2
aI1
aI4
aa(lp3018
I3
aI-2
aI2
aI-2
aI1
aI4
aI3
aI-2
aa(lp3019
I2
aI-2
aI1
aI4
aI3
aI-2
aI2
aI-2
aa(lp3020
I1
aI4
aI3
aI-2
aI2
aI-2
aI1
aI2
aa(lp3021
I3
aI-2
aI2
aI-2
aI1
aI2
aI3
aI2
aa(lp3022
I2
aI-2
aI1
aI2
aI3
aI2
aI2
aI1
aa(lp3023
I1
aI2
aI3
aI2
aI2
aI1
aI4
aI2
aa(lp3024
I3
aI2
aI2
aI1
aI4
aI2
aI5
aI-2
aa(lp3025
I2
aI1
aI4
aI2
aI5
aI-2
aI4
aI-1
aa(lp3026
I4
aI2
aI5
aI-2
aI4
aI-1
aI3
aI1
aa(lp3027
I5
aI-2
aI4
aI-1
aI3
aI1
aI4
aI-1
aa(lp3028
I4
aI-1
aI3
aI1
aI4
aI-1
aI3
aI-2
aa(lp3029
I3
aI1
aI4
aI-1
aI3
aI-2
aI2
aI5
aa(lp3030
I4
aI-1
aI3
aI-2
aI2
aI5
aI1
aI2
aa(lp3031
I3
aI-2
aI2
aI5
aI1
aI2
aI2
aI2
aa(lp3032
I2
aI5
aI1
aI2
aI2
aI2
aI3
aI1
aa(lp3033
I1
aI2
aI2
aI2
aI3
aI1
aI1
aI2
aa(lp3034
I2
aI2
aI3
aI1
aI1
aI2
aI2
aI2
aa(lp3035
I3
aI1
aI1
aI2
aI2
aI2
aI3
aI-2
aa(lp3036
I1
aI2
aI2
aI2
aI3
aI-2
aI2
aI-2
aa(lp3037
I2
aI2
aI3
aI-2
aI2
aI-2
aI1
aI-1
aa(lp3038
I3
aI-2
aI2
aI-2
aI1
aI-1
aI3
aI-2
aa(lp3039
I2
aI-2
aI1
aI-1
aI3
aI-2
aI2
aI-2
aa(lp3040
I1
aI-1
aI3
aI-2
aI2
aI-2
aI1
aI-1
aa(lp3041
I3
aI-2
aI2
aI-2
aI1
aI-1
aI2
aI1
aa(lp3042
I2
aI-2
aI1
aI-1
aI2
aI1
aI1
aI2
aa(lp3043
I1
aI-1
aI2
aI1
aI1
aI2
aI2
aI2
aa(lp3044
I2
aI1
aI1
aI2
aI2
aI2
aI3
aI1
aa(lp3045
I1
aI2
aI2
aI2
aI3
aI1
aI1
aI2
aa(lp3046
I2
aI2
aI3
aI1
aI1
aI2
aI2
aI2
aa(lp3047
I3
aI1
aI1
aI2
aI2
aI2
aI3
aI-2
aa(lp3048
I1
aI2
aI2
aI2
aI3
aI-2
aI2
aI-2
aa(lp3049
I2
aI2
aI3
aI-2
aI2
aI-2
aI1
aI-1
aa(lp3050
I3
aI-2
aI2
aI-2
aI1
aI-1
aI3
aI-2
aa(lp3051
I2
aI-2
aI1
aI-1
aI3
aI-2
aI2
aI-2
aa(lp3052
I1
aI-1
aI3
aI-2
aI2
aI-2
aI1
aI-1
aa(lp3053
I3
aI-2
aI2
aI-2
aI1
aI-1
aI2
aI1
aa(lp3054
I2
aI-2
aI1
aI-1
aI2
aI1
aI1
aI2
aa(lp3055
I1
aI-1
aI2
aI1
aI1
aI2
aI2
aI2
aa(lp3056
I2
aI1
aI1
aI2
aI2
aI2
aI3
aI1
aa(lp3057
I1
aI2
aI2
aI2
aI3
aI1
aI1
aI2
aa(lp3058
I2
aI2
aI3
aI1
aI1
aI2
aI2
aI2
aa(lp3059
I3
aI1
aI1
aI2
aI2
aI2
aI3
aI1
aa(lp3060
I1
aI2
aI2
aI2
aI3
aI1
aI4
aI-1
aa(lp3061
I2
aI2
aI3
aI1
aI4
aI-1
aI3
aI3
aa(lp3062
I3
aI1
aI4
aI-1
aI3
aI3
aI5
aI-2
aa(lp3063
I4
aI-1
aI3
aI3
aI5
aI-2
aI4
aI-1
aa(lp3064
I3
aI3
aI5
aI-2
aI4
aI-1
aI3
aI-2
aa(lp3065
I5
aI-2
aI4
aI-1
aI3
aI-2
aI2
aI-2
aa(lp3066
I4
aI-1
aI3
aI-2
aI2
aI-2
aI1
aI7
aa(lp3067
I3
aI-2
aI2
aI-2
aI1
aI7
aI3
aI-3
aa(lp3068
I2
aI-2
aI1
aI7
aI3
aI-3
aI5
aI-4
aa(lp3069
I1
aI7
aI3
aI-3
aI5
aI-4
aI1
aI7
aa(lp3070
I3
aI-3
aI5
aI-4
aI1
aI7
aI3
aI-3
aa(lp3071
I5
aI-4
aI1
aI7
aI3
aI-3
aI5
aI-4
aa(lp3072
I1
aI7
aI3
aI-3
aI5
aI-4
aI1
aI11
aa(lp3073
I3
aI-3
aI5
aI-4
aI1
aI11
aI3
aI3
aa(lp3074
I5
aI-4
aI1
aI11
aI3
aI3
aI5
aI-2
aa(lp3075
I1
aI11
aI3
aI3
aI5
aI-2
aI4
aI-1
aa(lp3076
I3
aI3
aI5
aI-2
aI4
aI-1
aI3
aI-2
aa(lp3077
I5
aI-2
aI4
aI-1
aI3
aI-2
aI2
aI-2
aa(lp3078
I4
aI-1
aI3
aI-2
aI2
aI-2
aI1
aI-2
aa(lp3079
I3
aI-2
aI2
aI-2
aI1
aI-2
aI3
aI4
aa(lp3080
I2
aI-2
aI1
aI-2
aI3
aI4
aI5
aI-2
aa(lp3081
I1
aI-2
aI3
aI4
aI5
aI-2
aI4
aI-2
aa(lp3082
I3
aI4
aI5
aI-2
aI4
aI-2
aI3
aI-1
aa(lp3083
I5
aI-2
aI4
aI-2
aI3
aI-1
aI2
aI-2
aa(lp3084
I4
aI-2
aI3
aI-1
aI2
aI-2
aI1
aI2
aa(lp3085
I3
aI-1
aI2
aI-2
aI1
aI2
aI3
aI3
aa(lp3086
I2
aI-2
aI1
aI2
aI3
aI3
aI5
aI-2
aa(lp3087
I1
aI2
aI3
aI3
aI5
aI-2
aI4
aI-1
aa(lp3088
I3
aI3
aI5
aI-2
aI4
aI-1
aI3
aI-2
aa(lp3089
I5
aI-2
aI4
aI-1
aI3
aI-2
aI2
aI-2
aa(lp3090
I4
aI-1
aI3
aI-2
aI2
aI-2
aI1
aI4
aa(lp3091
I3
aI-2
aI2
aI-2
aI1
aI4
aI3
aI3
aa(lp3092
I2
aI-2
aI1
aI4
aI3
aI3
aI5
aI-2
aa(lp3093
I1
aI4
aI3
aI3
aI5
aI-2
aI4
aI-1
aa(lp3094
I3
aI3
aI5
aI-2
aI4
aI-1
aI3
aI-2
aa(lp3095
I5
aI-2
aI4
aI-1
aI3
aI-2
aI2
aI-2
aa(lp3096
I4
aI-1
aI3
aI-2
aI2
aI-2
aI1
aI-1
aa(lp3097
I3
aI-2
aI2
aI-2
aI1
aI-1
aI3
aI3
aa(lp3098
I2
aI-2
aI1
aI-1
aI3
aI3
aI5
aI-2
aa(lp3099
I1
aI-1
aI3
aI3
aI5
aI-2
aI4
aI-1
aa(lp3100
I3
aI3
aI5
aI-2
aI4
aI-1
aI3
aI-2
aa(lp3101
I5
aI-2
aI4
aI-1
aI3
aI-2
aI2
aI-2
aa(lp3102
I4
aI-1
aI3
aI-2
aI2
aI-2
aI1
aI-2
aa(lp3103
I3
aI-2
aI2
aI-2
aI1
aI-2
aI3
aI4
aa(lp3104
I2
aI-2
aI1
aI-2
aI3
aI4
aI5
aI-2
aa(lp3105
I1
aI-2
aI3
aI4
aI5
aI-2
aI4
aI-2
aa(lp3106
I3
aI4
aI5
aI-2
aI4
aI-2
aI3
aI-1
aa(lp3107
I5
aI-2
aI4
aI-2
aI3
aI-1
aI2
aI-2
aa(lp3108
I4
aI-2
aI3
aI-1
aI2
aI-2
aI1
aI2
aa(lp3109
I3
aI-1
aI2
aI-2
aI1
aI2
aI3
aI3
aa(lp3110
I2
aI-2
aI1
aI2
aI3
aI3
aI5
aI-2
aa(lp3111
I1
aI2
aI3
aI3
aI5
aI-2
aI4
aI-1
aa(lp3112
I3
aI3
aI5
aI-2
aI4
aI-1
aI3
aI-2
aa(lp3113
I5
aI-2
aI4
aI-1
aI3
aI-2
aI2
aI-2
aa(lp3114
I4
aI-1
aI3
aI-2
aI2
aI-2
aI1
aI4
aa(lp3115
I3
aI-2
aI2
aI-2
aI1
aI4
aI3
aI3
aa(lp3116
I2
aI-2
aI1
aI4
aI3
aI3
aI5
aI-2
aa(lp3117
I1
aI4
aI3
aI3
aI5
aI-2
aI4
aI-1
aa(lp3118
I3
aI3
aI5
aI-2
aI4
aI-1
aI3
aI-2
aa(lp3119
I5
aI-2
aI4
aI-1
aI3
aI-2
aI2
aI-2
aa(lp3120
I4
aI-1
aI3
aI-2
aI2
aI-2
aI1
aI4
aa(lp3121
I3
aI-2
aI2
aI-2
aI1
aI4
aI3
aI-2
aa(lp3122
I2
aI-2
aI1
aI4
aI3
aI-2
aI2
aI-2
aa(lp3123
I1
aI4
aI3
aI-2
aI2
aI-2
aI1
aI4
aa(lp3124
I3
aI-2
aI2
aI-2
aI1
aI4
aI3
aI-2
aa(lp3125
I2
aI-2
aI1
aI4
aI3
aI-2
aI2
aI-2
aa(lp3126
I1
aI4
aI3
aI-2
aI2
aI-2
aI1
aI4
aa(lp3127
I3
aI-2
aI2
aI-2
aI1
aI4
aI3
aI-2
aa(lp3128
I2
aI-2
aI1
aI4
aI3
aI-2
aI2
aI-2
aa(lp3129
I1
aI4
aI3
aI-2
aI2
aI-2
aI1
aI7
aa(lp3130
I3
aI-2
aI2
aI-2
aI1
aI7
aI4
aI-2
aa(lp3131
I2
aI-2
aI1
aI7
aI4
aI-2
aI3
aI-1
aa(lp3132
I1
aI7
aI4
aI-2
aI3
aI-1
aI2
aI-2
aa(lp3133
I4
aI-2
aI3
aI-1
aI2
aI-2
aI1
aI3
aa(lp3134
I3
aI-1
aI2
aI-2
aI1
aI3
aI3
aI-1
aa(lp3135
I2
aI-2
aI1
aI3
aI3
aI-1
aI2
aI-2
aa(lp3136
I1
aI3
aI3
aI-1
aI2
aI-2
aI1
aI3
aa(lp3137
I3
aI-1
aI2
aI-2
aI1
aI3
aI3
aI-1
aa(lp3138
I2
aI-2
aI1
aI3
aI3
aI-1
aI2
aI-2
aa(lp3139
I1
aI3
aI3
aI-1
aI2
aI-2
aI1
aI3
aa(lp3140
I3
aI-1
aI2
aI-2
aI1
aI3
aI3
aI-1
aa(lp3141
I2
aI-2
aI1
aI3
aI3
aI-1
aI2
aI-2
aa(lp3142
I1
aI3
aI3
aI-1
aI2
aI-2
aI1
aI3
aa(lp3143
I3
aI-1
aI2
aI-2
aI1
aI3
aI3
aI4
aa(lp3144
I2
aI-2
aI1
aI3
aI3
aI4
aI5
aI-2
aa(lp3145
I1
aI3
aI3
aI4
aI5
aI-2
aI4
aI-1
aa(lp3146
I3
aI4
aI5
aI-2
aI4
aI-1
aI3
aI3
aa(lp3147
I5
aI-2
aI4
aI-1
aI3
aI3
aI5
aI-2
aa(lp3148
I4
aI-1
aI3
aI3
aI5
aI-2
aI4
aI-2
aa(lp3149
I3
aI3
aI5
aI-2
aI4
aI-2
aI3
aI-1
aa(lp3150
I5
aI-2
aI4
aI-2
aI3
aI-1
aI2
aI1
aa(lp3151
I4
aI-2
aI3
aI-1
aI2
aI1
aI4
aI-1
aa(lp3152
I3
aI-1
aI2
aI1
aI4
aI-1
aI2
aI3
aa(lp3153
I2
aI1
aI4
aI-1
aI2
aI3
aI5
aI-2
aa(lp3154
I4
aI-1
aI2
aI3
aI5
aI-2
aI4
aI-1
aa(lp3155
I2
aI3
aI5
aI-2
aI4
aI-1
aI3
aI-2
aa(lp3156
I5
aI-2
aI4
aI-1
aI3
aI-2
aI2
aI-2
aa(lp3157
I4
aI-1
aI3
aI-2
aI2
aI-2
aI1
aI7
aa(lp3158
I3
aI-2
aI2
aI-2
aI1
aI7
aI5
aI-3
aa(lp3159
I2
aI-2
aI1
aI7
aI5
aI-3
aI3
aI-4
aa(lp3160
I1
aI7
aI5
aI-3
aI3
aI-4
aI1
aI7
aa(lp3161
I5
aI-3
aI3
aI-4
aI1
aI7
aI5
aI-3
aa(lp3162
I3
aI-4
aI1
aI7
aI5
aI-3
aI3
aI-4
aa(lp3163
I4
aI0
aI3
aI0
aI2
aI0
aI1
aI4
aa(lp3164
I3
aI0
aI2
aI0
aI1
aI4
aI3
aI0
aa(lp3165
I2
aI0
aI1
aI4
aI3
aI0
aI4
aI0
aa(lp3166
I1
aI4
aI3
aI0
aI4
aI0
aI3
aI0
aa(lp3167
I3
aI0
aI4
aI0
aI3
aI0
aI2
aI0
aa(lp3168
I4
aI0
aI3
aI0
aI2
aI0
aI1
aI3
aa(lp3169
I3
aI0
aI2
aI0
aI1
aI3
aI3
aI0
aa(lp3170
I2
aI0
aI1
aI3
aI3
aI0
aI4
aI0
aa(lp3171
I1
aI3
aI3
aI0
aI4
aI0
aI3
aI0
aa(lp3172
I3
aI0
aI4
aI0
aI3
aI0
aI2
aI0
aa(lp3173
I4
aI0
aI3
aI0
aI2
aI0
aI1
aI5
aa(lp3174
I3
aI0
aI2
aI0
aI1
aI5
aI3
aI0
aa(lp3175
I2
aI0
aI1
aI5
aI3
aI0
aI4
aI0
aa(lp3176
I1
aI5
aI3
aI0
aI4
aI0
aI3
aI0
aa(lp3177
I3
aI0
aI4
aI0
aI3
aI0
aI2
aI0
aa(lp3178
I4
aI0
aI3
aI0
aI2
aI0
aI1
aI4
aa(lp3179
I3
aI0
aI2
aI0
aI1
aI4
aI3
aI0
aa(lp3180
I2
aI0
aI1
aI4
aI3
aI0
aI4
aI-2
aa(lp3181
I1
aI4
aI3
aI0
aI4
aI-2
aI3
aI-1
aa(lp3182
I3
aI0
aI4
aI-2
aI3
aI-1
aI2
aI1
aa(lp3183
I4
aI-2
aI3
aI-1
aI2
aI1
aI3
aI-7
aa(lp3184
I3
aI-1
aI2
aI1
aI3
aI-7
aI1
aI9
aa(lp3185
I2
aI1
aI3
aI-7
aI1
aI9
aI4
aI-2
aa(lp3186
I3
aI-7
aI1
aI9
aI4
aI-2
aI3
aI-1
aa(lp3187
I1
aI9
aI4
aI-2
aI3
aI-1
aI2
aI1
aa(lp3188
I4
aI-2
aI3
aI-1
aI2
aI1
aI3
aI-7
aa(lp3189
I3
aI-1
aI2
aI1
aI3
aI-7
aI1
aI12
aa(lp3190
I2
aI1
aI3
aI-7
aI1
aI12
aI4
aI2
aa(lp3191
I3
aI-7
aI1
aI12
aI4
aI2
aI5
aI-2
aa(lp3192
I1
aI12
aI4
aI2
aI5
aI-2
aI4
aI-3
aa(lp3193
I4
aI2
aI5
aI-2
aI4
aI-3
aI2
aI-4
aa(lp3194
I5
aI-2
aI4
aI-3
aI2
aI-4
aI1
aI-12
aa(lp3195
I4
aI-3
aI2
aI-4
aI1
aI-12
aI4
aI0
aa(lp3196
I2
aI-4
aI1
aI-12
aI4
aI0
aI3
aI0
aa(lp3197
I1
aI-12
aI4
aI0
aI3
aI0
aI2
aI0
aa(lp3198
I4
aI0
aI3
aI0
aI2
aI0
aI1
aI4
aa(lp3199
I3
aI0
aI2
aI0
aI1
aI4
aI3
aI0
aa(lp3200
I2
aI0
aI1
aI4
aI3
aI0
aI4
aI0
aa(lp3201
I1
aI4
aI3
aI0
aI4
aI0
aI3
aI0
aa(lp3202
I3
aI0
aI4
aI0
aI3
aI0
aI2
aI0
aa(lp3203
I4
aI0
aI3
aI0
aI2
aI0
aI1
aI3
aa(lp3204
I3
aI0
aI2
aI0
aI1
aI3
aI3
aI0
aa(lp3205
I2
aI0
aI1
aI3
aI3
aI0
aI4
aI0
aa(lp3206
I1
aI3
aI3
aI0
aI4
aI0
aI3
aI0
aa(lp3207
I3
aI0
aI4
aI0
aI3
aI0
aI2
aI0
aa(lp3208
I4
aI0
aI3
aI0
aI2
aI0
aI1
aI5
aa(lp3209
I3
aI0
aI2
aI0
aI1
aI5
aI3
aI0
aa(lp3210
I2
aI0
aI1
aI5
aI3
aI0
aI4
aI0
aa(lp3211
I1
aI5
aI3
aI0
aI4
aI0
aI3
aI0
aa(lp3212
I3
aI0
aI4
aI0
aI3
aI0
aI2
aI0
aa(lp3213
I4
aI0
aI3
aI0
aI2
aI0
aI1
aI4
aa(lp3214
I3
aI0
aI2
aI0
aI1
aI4
aI3
aI-2
aa(lp3215
I2
aI0
aI1
aI4
aI3
aI-2
aI1
aI2
aa(lp3216
I1
aI4
aI3
aI-2
aI1
aI2
aI2
aI2
aa(lp3217
I3
aI-2
aI1
aI2
aI2
aI2
aI3
aI1
aa(lp3218
I1
aI2
aI2
aI2
aI3
aI1
aI1
aI2
aa(lp3219
I2
aI2
aI3
aI1
aI1
aI2
aI2
aI2
aa(lp3220
I3
aI1
aI1
aI2
aI2
aI2
aI3
aI3
aa(lp3221
I1
aI2
aI2
aI2
aI3
aI3
aI5
aI-2
aa(lp3222
I2
aI2
aI3
aI3
aI5
aI-2
aI4
aI-1
aa(lp3223
I3
aI3
aI5
aI-2
aI4
aI-1
aI3
aI-2
aa(lp3224
I5
aI-2
aI4
aI-1
aI3
aI-2
aI2
aI-2
aa(lp3225
I4
aI-1
aI3
aI-2
aI2
aI-2
aI1
aI-1
aa(lp3226
I3
aI-2
aI2
aI-2
aI1
aI-1
aI2
aI1
aa(lp3227
I2
aI-2
aI1
aI-1
aI2
aI1
aI3
aI-5
aa(lp3228
I1
aI-1
aI2
aI1
aI3
aI-5
aI1
aI5
aa(lp3229
I2
aI1
aI3
aI-5
aI1
aI5
aI3
aI-5
aa(lp3230
I3
aI-5
aI1
aI5
aI3
aI-5
aI1
aI9
aa(lp3231
I1
aI5
aI3
aI-5
aI1
aI9
aI5
aI-9
aa(lp3232
I3
aI-5
aI1
aI9
aI5
aI-9
aI1
aI5
aa(lp3233
I1
aI9
aI5
aI-9
aI1
aI5
aI3
aI-12
aa(lp3234
I5
aI-9
aI1
aI5
aI3
aI-12
aI4
aI0
aa(lp3235
I1
aI5
aI3
aI-12
aI4
aI0
aI3
aI0
aa(lp3236
I3
aI-12
aI4
aI0
aI3
aI0
aI2
aI0
aa(lp3237
I4
aI0
aI3
aI0
aI2
aI0
aI1
aI0
aa(lp3238
I3
aI0
aI2
aI0
aI1
aI0
aI4
aI0
aa(lp3239
I2
aI0
aI1
aI0
aI4
aI0
aI3
aI0
aa(lp3240
I1
aI0
aI4
aI0
aI3
aI0
aI2
aI0
aa(lp3241
I4
aI0
aI3
aI0
aI2
aI0
aI1
aI0
aa(lp3242
I3
aI0
aI2
aI0
aI1
aI0
aI4
aI0
aa(lp3243
I2
aI0
aI1
aI0
aI4
aI0
aI3
aI0
aa(lp3244
I1
aI0
aI4
aI0
aI3
aI0
aI2
aI0
aa(lp3245
I4
aI0
aI3
aI0
aI2
aI0
aI1
aI0
aa(lp3246
I3
aI0
aI2
aI0
aI1
aI0
aI2
aI2
aa(lp3247
I2
aI0
aI1
aI0
aI2
aI2
aI3
aI2
aa(lp3248
I1
aI0
aI2
aI2
aI3
aI2
aI1
aI1
aa(lp3249
I2
aI2
aI3
aI2
aI1
aI1
aI2
aI2
aa(lp3250
I3
aI2
aI1
aI1
aI2
aI2
aI3
aI2
aa(lp3251
I1
aI1
aI2
aI2
aI3
aI2
aI4
aI1
aa(lp3252
I2
aI2
aI3
aI2
aI4
aI1
aI5
aI-10
aa(lp3253
I3
aI2
aI4
aI1
aI5
aI-10
aI1
aI0
aa(lp3254
I4
aI1
aI5
aI-10
aI1
aI0
aI3
aI0
aa(lp3255
I5
aI-10
aI1
aI0
aI3
aI0
aI2
aI0
aa(lp3256
I1
aI0
aI3
aI0
aI2
aI0
aI1
aI0
aa(lp3257
I3
aI0
aI2
aI0
aI1
aI0
aI3
aI0
aa(lp3258
I2
aI0
aI1
aI0
aI3
aI0
aI2
aI0
aa(lp3259
I1
aI0
aI3
aI0
aI2
aI0
aI1
aI0
aa(lp3260
I3
aI0
aI2
aI0
aI1
aI0
aI3
aI0
aa(lp3261
I2
aI0
aI1
aI0
aI3
aI0
aI2
aI0
aa(lp3262
I1
aI0
aI3
aI0
aI2
aI0
aI1
aI0
aa(lp3263
I3
aI0
aI2
aI0
aI1
aI0
aI3
aI0
aa(lp3264
I2
aI0
aI1
aI0
aI3
aI0
aI2
aI0
aa(lp3265
I1
aI0
aI3
aI0
aI2
aI0
aI1
aI5
aa(lp3266
I3
aI0
aI2
aI0
aI1
aI5
aI2
aI4
aa(lp3267
I2
aI0
aI1
aI5
aI2
aI4
aI4
aI-9
aa(lp3268
I1
aI5
aI2
aI4
aI4
aI-9
aI1
aI5
aa(lp3269
I2
aI4
aI4
aI-9
aI1
aI5
aI2
aI4
aa(lp3270
I4
aI-9
aI1
aI5
aI2
aI4
aI4
aI3
aa(lp3271
I1
aI5
aI2
aI4
aI4
aI3
aI5
aI-12
aa(lp3272
I2
aI4
aI4
aI3
aI5
aI-12
aI1
aI12
aa(lp3273
I4
aI3
aI5
aI-12
aI1
aI12
aI4
aI0
aa(lp3274
I5
aI-12
aI1
aI12
aI4
aI0
aI3
aI0
aa(lp3275
I1
aI12
aI4
aI0
aI3
aI0
aI2
aI0
aa(lp3276
I4
aI0
aI3
aI0
aI2
aI0
aI1
aI5
aa(lp3277
I3
aI0
aI2
aI0
aI1
aI5
aI5
aI-8
aa(lp3278
I2
aI0
aI1
aI5
aI5
aI-8
aI4
aI0
aa(lp3279
I1
aI5
aI5
aI-8
aI4
aI0
aI3
aI0
aa(lp3280
I5
aI-8
aI4
aI0
aI3
aI0
aI2
aI0
aa(lp3281
I4
aI0
aI3
aI0
aI2
aI0
aI1
aI3
aa(lp3282
I3
aI0
aI2
aI0
aI1
aI3
aI3
aI-2
aa(lp3283
I2
aI0
aI1
aI3
aI3
aI-2
aI4
aI0
aa(lp3284
I1
aI3
aI3
aI-2
aI4
aI0
aI3
aI0
aa(lp3285
I3
aI-2
aI4
aI0
aI3
aI0
aI2
aI0
aa(lp3286
I4
aI0
aI3
aI0
aI2
aI0
aI1
aI4
aa(lp3287
I3
aI0
aI2
aI0
aI1
aI4
aI3
aI-7
aa(lp3288
I2
aI0
aI1
aI4
aI3
aI-7
aI4
aI0
aa(lp3289
I1
aI4
aI3
aI-7
aI4
aI0
aI3
aI0
aa(lp3290
I3
aI-7
aI4
aI0
aI3
aI0
aI2
aI0
aa(lp3291
I4
aI0
aI3
aI0
aI2
aI0
aI1
aI3
aa(lp3292
I3
aI0
aI2
aI0
aI1
aI3
aI3
aI-1
aa(lp3293
I2
aI0
aI1
aI3
aI3
aI-1
aI4
aI0
aa(lp3294
I1
aI3
aI3
aI-1
aI4
aI0
aI3
aI0
aa(lp3295
I3
aI-1
aI4
aI0
aI3
aI0
aI2
aI0
aa(lp3296
I4
aI0
aI3
aI0
aI2
aI0
aI1
aI3
aa(lp3297
I3
aI0
aI2
aI0
aI1
aI3
aI3
aI0
aa(lp3298
I2
aI0
aI1
aI3
aI3
aI0
aI5
aI-2
aa(lp3299
I1
aI3
aI3
aI0
aI5
aI-2
aI4
aI-1
aa(lp3300
I3
aI0
aI5
aI-2
aI4
aI-1
aI3
aI-2
aa(lp3301
I5
aI-2
aI4
aI-1
aI3
aI-2
aI2
aI-2
aa(lp3302
I4
aI-1
aI3
aI-2
aI2
aI-2
aI1
aI-1
aa(lp3303
I3
aI-2
aI2
aI-2
aI1
aI-1
aI2
aI1
aa(lp3304
I2
aI-2
aI1
aI-1
aI2
aI1
aI3
aI-5
aa(lp3305
I1
aI-1
aI2
aI1
aI3
aI-5
aI1
aI5
aa(lp3306
I2
aI1
aI3
aI-5
aI1
aI5
aI3
aI-5
aa(lp3307
I3
aI-5
aI1
aI5
aI3
aI-5
aI1
aI9
aa(lp3308
I1
aI5
aI3
aI-5
aI1
aI9
aI5
aI-9
aa(lp3309
I3
aI-5
aI1
aI9
aI5
aI-9
aI1
aI5
aa(lp3310
I1
aI2
aI2
aI2
aI3
aI1
aI4
aI2
aa(lp3311
I2
aI2
aI3
aI1
aI4
aI2
aI5
aI0
aa(lp3312
I3
aI1
aI4
aI2
aI5
aI0
aI5
aI0
aa(lp3313
I4
aI2
aI5
aI0
aI5
aI0
aI5
aI-2
aa(lp3314
I5
aI0
aI5
aI0
aI5
aI-2
aI4
aI-1
aa(lp3315
I5
aI0
aI5
aI-2
aI4
aI-1
aI3
aI-2
aa(lp3316
I5
aI-2
aI4
aI-1
aI3
aI-2
aI2
aI-2
aa(lp3317
I4
aI-1
aI3
aI-2
aI2
aI-2
aI1
aI4
aa(lp3318
I3
aI-2
aI2
aI-2
aI1
aI4
aI3
aI-2
aa(lp3319
I2
aI-2
aI1
aI4
aI3
aI-2
aI2
aI2
aa(lp3320
I1
aI4
aI3
aI-2
aI2
aI2
aI3
aI1
aa(lp3321
I3
aI-2
aI2
aI2
aI3
aI1
aI4
aI-3
aa(lp3322
I2
aI2
aI3
aI1
aI4
aI-3
aI2
aI5
aa(lp3323
I3
aI1
aI4
aI-3
aI2
aI5
aI5
aI-2
aa(lp3324
I4
aI-3
aI2
aI5
aI5
aI-2
aI4
aI-1
aa(lp3325
I2
aI5
aI5
aI-2
aI4
aI-1
aI3
aI1
aa(lp3326
I5
aI-2
aI4
aI-1
aI3
aI1
aI4
aI2
aa(lp3327
I4
aI-1
aI3
aI1
aI4
aI2
aI5
aI-3
aa(lp3328
I3
aI1
aI4
aI2
aI5
aI-3
aI3
aI-4
aa(lp3329
I4
aI2
aI5
aI-3
aI3
aI-4
aI1
aI0
aa(lp3330
I5
aI-3
aI3
aI-4
aI1
aI0
aI1
aI2
aa(lp3331
I3
aI-4
aI1
aI0
aI1
aI2
aI2
aI2
aa(lp3332
I1
aI0
aI1
aI2
aI2
aI2
aI3
aI-2
aa(lp3333
I1
aI2
aI2
aI2
aI3
aI-2
aI2
aI-2
aa(lp3334
I2
aI2
aI3
aI-2
aI2
aI-2
aI1
aI2
aa(lp3335
I3
aI-2
aI2
aI-2
aI1
aI2
aI2
aI2
aa(lp3336
I2
aI-2
aI1
aI2
aI2
aI2
aI3
aI1
aa(lp3337
I1
aI2
aI2
aI2
aI3
aI1
aI4
aI2
aa(lp3338
I2
aI2
aI3
aI1
aI4
aI2
aI5
aI-2
aa(lp3339
I3
aI1
aI4
aI2
aI5
aI-2
aI4
aI-1
aa(lp3340
I4
aI2
aI5
aI-2
aI4
aI-1
aI3
aI-2
aa(lp3341
I5
aI-2
aI4
aI-1
aI3
aI-2
aI2
aI-2
aa(lp3342
I4
aI-1
aI3
aI-2
aI2
aI-2
aI1
aI4
aa(lp3343
I3
aI-2
aI2
aI-2
aI1
aI4
aI3
aI-2
aa(lp3344
I2
aI-2
aI1
aI4
aI3
aI-2
aI2
aI2
aa(lp3345
I1
aI4
aI3
aI-2
aI2
aI2
aI3
aI1
aa(lp3346
I3
aI-2
aI2
aI2
aI3
aI1
aI4
aI-1
aa(lp3347
I2
aI2
aI3
aI1
aI4
aI-1
aI3
aI3
aa(lp3348
I3
aI1
aI4
aI-1
aI3
aI3
aI5
aI-2
aa(lp3349
I4
aI-1
aI3
aI3
aI5
aI-2
aI4
aI-1
aa(lp3350
I3
aI3
aI5
aI-2
aI4
aI-1
aI3
aI-2
aa(lp3351
I5
aI-2
aI4
aI-1
aI3
aI-2
aI2
aI-2
aa(lp3352
I4
aI-1
aI3
aI-2
aI2
aI-2
aI1
aI4
aa(lp3353
I3
aI-2
aI2
aI-2
aI1
aI4
aI3
aI3
aa(lp3354
I2
aI-2
aI1
aI4
aI3
aI3
aI5
aI-3
aa(lp3355
I1
aI4
aI3
aI3
aI5
aI-3
aI3
aI-4
aa(lp3356
I3
aI3
aI5
aI-3
aI3
aI-4
aI1
aI2
aa(lp3357
I5
aI-3
aI3
aI-4
aI1
aI2
aI2
aI2
aa(lp3358
I3
aI-4
aI1
aI2
aI2
aI2
aI3
aI1
aa(lp3359
I1
aI2
aI2
aI2
aI3
aI1
aI4
aI-1
aa(lp3360
I2
aI2
aI3
aI1
aI4
aI-1
aI3
aI3
aa(lp3361
I3
aI1
aI4
aI-1
aI3
aI3
aI5
aI-2
aa(lp3362
I4
aI-1
aI3
aI3
aI5
aI-2
aI4
aI-1
aa(lp3363
I3
aI3
aI5
aI-2
aI4
aI-1
aI3
aI-2
aa(lp3364
I5
aI-2
aI4
aI-1
aI3
aI-2
aI2
aI2
aa(lp3365
I4
aI-1
aI3
aI-2
aI2
aI2
aI3
aI1
aa(lp3366
I3
aI-2
aI2
aI2
aI3
aI1
aI4
aI2
aa(lp3367
I2
aI2
aI3
aI1
aI4
aI2
aI5
aI-3
aa(lp3368
I3
aI1
aI4
aI2
aI5
aI-3
aI3
aI-4
aa(lp3369
I4
aI2
aI5
aI-3
aI3
aI-4
aI1
aI0
aa(lp3370
I5
aI-3
aI3
aI-4
aI1
aI0
aI1
aI2
aa(lp3371
I3
aI-4
aI1
aI0
aI1
aI2
aI2
aI2
aa(lp3372
I1
aI0
aI1
aI2
aI2
aI2
aI3
aI1
aa(lp3373
I1
aI2
aI2
aI2
aI3
aI1
aI4
aI-3
aa(lp3374
I2
aI2
aI3
aI1
aI4
aI-3
aI3
aI5
aa(lp3375
I3
aI1
aI4
aI-3
aI3
aI5
aI5
aI-2
aa(lp3376
I4
aI-3
aI3
aI5
aI5
aI-2
aI4
aI-1
aa(lp3377
I3
aI5
aI5
aI-2
aI4
aI-1
aI3
aI-2
aa(lp3378
I5
aI-2
aI4
aI-1
aI3
aI-2
aI2
aI2
aa(lp3379
I4
aI-1
aI3
aI-2
aI2
aI2
aI3
aI1
aa(lp3380
I3
aI-2
aI2
aI2
aI3
aI1
aI4
aI2
aa(lp3381
I2
aI2
aI3
aI1
aI4
aI2
aI5
aI-3
aa(lp3382
I3
aI1
aI4
aI2
aI5
aI-3
aI3
aI-4
aa(lp3383
I4
aI2
aI5
aI-3
aI3
aI-4
aI1
aI0
aa(lp3384
I5
aI-3
aI3
aI-4
aI1
aI0
aI1
aI0
aa(lp3385
I3
aI-4
aI1
aI0
aI1
aI0
aI1
aI2
aa(lp3386
I1
aI0
aI1
aI0
aI1
aI2
aI2
aI2
aa(lp3387
I1
aI0
aI1
aI2
aI2
aI2
aI3
aI1
aa(lp3388
I1
aI2
aI2
aI2
aI3
aI1
aI4
aI2
aa(lp3389
I2
aI2
aI3
aI1
aI4
aI2
aI5
aI0
aa(lp3390
I3
aI1
aI4
aI2
aI5
aI0
aI4
aI0
aa(lp3391
I4
aI2
aI5
aI0
aI4
aI0
aI3
aI0
aa(lp3392
I5
aI0
aI4
aI0
aI3
aI0
aI4
aI0
aa(lp3393
I4
aI0
aI3
aI0
aI4
aI0
aI5
aI-2
aa(lp3394
I3
aI0
aI4
aI0
aI5
aI-2
aI4
aI-1
aa(lp3395
I4
aI0
aI5
aI-2
aI4
aI-1
aI3
aI-2
aa(lp3396
I5
aI-2
aI4
aI-1
aI3
aI-2
aI2
aI-2
aa(lp3397
I4
aI-1
aI3
aI-2
aI2
aI-2
aI1
aI2
aa(lp3398
I3
aI-2
aI2
aI-2
aI1
aI2
aI2
aI2
aa(lp3399
I2
aI-2
aI1
aI2
aI2
aI2
aI3
aI-4
aa(lp3400
I1
aI2
aI2
aI2
aI3
aI-4
aI1
aI2
aa(lp3401
I2
aI2
aI3
aI-4
aI1
aI2
aI2
aI2
aa(lp3402
I3
aI-4
aI1
aI2
aI2
aI2
aI3
aI1
aa(lp3403
I1
aI2
aI2
aI2
aI3
aI1
aI4
aI-3
aa(lp3404
I2
aI2
aI3
aI1
aI4
aI-3
aI2
aI5
aa(lp3405
I3
aI1
aI4
aI-3
aI2
aI5
aI5
aI-2
aa(lp3406
I4
aI-3
aI2
aI5
aI5
aI-2
aI4
aI-1
aa(lp3407
I2
aI5
aI5
aI-2
aI4
aI-1
aI3
aI-2
aa(lp3408
I5
aI-2
aI4
aI-1
aI3
aI-2
aI2
aI-2
aa(lp3409
I4
aI-1
aI3
aI-2
aI2
aI-2
aI1
aI4
aa(lp3410
I3
aI-2
aI2
aI-2
aI1
aI4
aI3
aI3
aa(lp3411
I2
aI-2
aI1
aI4
aI3
aI3
aI5
aI-3
aa(lp3412
I1
aI4
aI3
aI3
aI5
aI-3
aI3
aI-4
aa(lp3413
I5
aI-3
aI3
aI-2
aI2
aI0
aI2
aI0
aa(lp3414
I3
aI-2
aI2
aI0
aI2
aI0
aI2
aI0
aa(lp3415
I5
aI-2
aI4
aI-2
aI3
aI-1
aI2
aI-2
aa(lp3416
I4
aI-2
aI3
aI-1
aI2
aI-2
aI1
aI-2
aa(lp3417
I3
aI-1
aI2
aI-2
aI1
aI-2
aI2
aI0
aa(lp3418
I2
aI-2
aI1
aI-2
aI2
aI0
aI2
aI4
aa(lp3419
I1
aI-2
aI2
aI0
aI2
aI4
aI4
aI-4
aa(lp3420
I1
aI7
aI5
aI-2
aI4
aI2
aI5
aI-3
aa(lp3421
I5
aI-2
aI4
aI2
aI5
aI-3
aI3
aI1
aa(lp3422
I4
aI2
aI5
aI-3
aI3
aI1
aI4
aI-3
aa(lp3423
I5
aI-3
aI3
aI1
aI4
aI-3
aI2
aI2
aa(lp3424
I3
aI1
aI4
aI-3
aI2
aI2
aI3
aI-4
aa(lp3425
I4
aI-3
aI2
aI2
aI3
aI-4
aI1
aI7
aa(lp3426
I2
aI2
aI3
aI-4
aI1
aI7
aI5
aI-2
aa(lp3427
I3
aI-4
aI1
aI7
aI5
aI-2
aI4
aI2
aa(lp3428
I1
aI7
aI5
aI-2
aI4
aI2
aI5
aI-3
aa(lp3429
I5
aI-2
aI4
aI2
aI5
aI-3
aI3
aI1
aa(lp3430
I4
aI2
aI5
aI-3
aI3
aI1
aI4
aI-3
aa(lp3431
I5
aI-3
aI3
aI1
aI4
aI-3
aI2
aI2
aa(lp3432
I3
aI1
aI4
aI-3
aI2
aI2
aI3
aI-4
aa(lp3433
I4
aI-3
aI2
aI2
aI3
aI-4
aI1
aI2
aa(lp3434
I2
aI2
aI3
aI-4
aI1
aI2
aI2
aI2
aa(lp3435
I3
aI-4
aI1
aI2
aI2
aI2
aI3
aI1
aa(lp3436
I1
aI2
aI2
aI2
aI3
aI1
aI4
aI2
aa(lp3437
I2
aI2
aI3
aI1
aI4
aI2
aI5
aI-3
aa(lp3438
I3
aI1
aI4
aI2
aI5
aI-3
aI3
aI3
aa(lp3439
I4
aI2
aI5
aI-3
aI3
aI3
aI5
aI-3
aa(lp3440
I5
aI-3
aI3
aI3
aI5
aI-3
aI3
aI3
aa(lp3441
I3
aI3
aI5
aI-3
aI3
aI3
aI5
aI-2
aa(lp3442
I5
aI-3
aI3
aI3
aI5
aI-2
aI4
aI-1
aa(lp3443
I3
aI3
aI5
aI-2
aI4
aI-1
aI3
aI1
aa(lp3444
I5
aI-2
aI4
aI-1
aI3
aI1
aI4
aI-3
aa(lp3445
I4
aI-1
aI3
aI1
aI4
aI-3
aI2
aI-2
aa(lp3446
I3
aI1
aI4
aI-3
aI2
aI-2
aI1
aI7
aa(lp3447
I4
aI-3
aI2
aI-2
aI1
aI7
aI5
aI-2
aa(lp3448
I2
aI-2
aI1
aI7
aI5
aI-2
aI4
aI2
aa(lp3449
I1
aI7
aI5
aI-2
aI4
aI2
aI5
aI-3
aa(lp3450
I5
aI-2
aI4
aI2
aI5
aI-3
aI3
aI1
aa(lp3451
I4
aI2
aI5
aI-3
aI3
aI1
aI4
aI-3
aa(lp3452
I5
aI-3
aI3
aI1
aI4
aI-3
aI2
aI2
aa(lp3453
I3
aI1
aI4
aI-3
aI2
aI2
aI3
aI-4
aa(lp3454
I4
aI-3
aI2
aI2
aI3
aI-4
aI1
aI7
aa(lp3455
I2
aI2
aI3
aI-4
aI1
aI7
aI5
aI-2
aa(lp3456
I3
aI-4
aI1
aI7
aI5
aI-2
aI4
aI2
aa(lp3457
I1
aI7
aI5
aI-2
aI4
aI2
aI5
aI-3
aa(lp3458
I5
aI-2
aI4
aI2
aI5
aI-3
aI3
aI1
aa(lp3459
I4
aI2
aI5
aI-3
aI3
aI1
aI4
aI-3
aa(lp3460
I5
aI-3
aI3
aI1
aI4
aI-3
aI2
aI2
aa(lp3461
I3
aI1
aI4
aI-3
aI2
aI2
aI3
aI-4
aa(lp3462
I4
aI-3
aI2
aI2
aI3
aI-4
aI1
aI7
aa(lp3463
I2
aI2
aI3
aI-4
aI1
aI7
aI5
aI-2
aa(lp3464
I3
aI-4
aI1
aI7
aI5
aI-2
aI4
aI-1
aa(lp3465
I1
aI7
aI5
aI-2
aI4
aI-1
aI5
aI-2
aa(lp3466
I5
aI-2
aI4
aI-1
aI5
aI-2
aI2
aI3
aa(lp3467
I4
aI-1
aI5
aI-2
aI2
aI3
aI4
aI-1
aa(lp3468
I5
aI-2
aI2
aI3
aI4
aI-1
aI3
aI-2
aa(lp3469
I2
aI3
aI4
aI-1
aI3
aI-2
aI2
aI-2
aa(lp3470
I4
aI-1
aI3
aI-2
aI2
aI-2
aI1
aI4
aa(lp3471
I3
aI-2
aI2
aI-2
aI1
aI4
aI3
aI3
aa(lp3472
I2
aI-2
aI1
aI4
aI3
aI3
aI5
aI-3
aa(lp3473
I1
aI4
aI3
aI3
aI5
aI-3
aI3
aI-4
aa(lp3474
I3
aI3
aI5
aI-3
aI3
aI-4
aI1
aI2
aa(lp3475
I5
aI-3
aI3
aI-4
aI1
aI2
aI2
aI2
aa(lp3476
I3
aI-4
aI1
aI2
aI2
aI2
aI3
aI-2
aa(lp3477
I1
aI2
aI2
aI2
aI3
aI-2
aI2
aI2
aa(lp3478
I2
aI2
aI3
aI-2
aI2
aI2
aI3
aI1
aa(lp3479
I3
aI-2
aI2
aI2
aI3
aI1
aI4
aI-1
aa(lp3480
I2
aI2
aI3
aI1
aI4
aI-1
aI3
aI1
aa(lp3481
I3
aI1
aI4
aI-1
aI3
aI1
aI4
aI-3
aa(lp3482
I4
aI-1
aI3
aI1
aI4
aI-3
aI3
aI2
aa(lp3483
I3
aI1
aI4
aI-3
aI3
aI2
aI3
aI1
aa(lp3484
I4
aI-3
aI3
aI2
aI3
aI1
aI4
aI-1
aa(lp3485
I3
aI2
aI3
aI1
aI4
aI-1
aI3
aI1
aa(lp3486
I3
aI1
aI4
aI-1
aI3
aI1
aI4
aI2
aa(lp3487
I4
aI-1
aI3
aI1
aI4
aI2
aI5
aI-2
aa(lp3488
I3
aI1
aI4
aI2
aI5
aI-2
aI4
aI2
aa(lp3489
I4
aI2
aI5
aI-2
aI4
aI2
aI5
aI-3
aa(lp3490
I5
aI-2
aI4
aI2
aI5
aI-3
aI4
aI1
aa(lp3491
I4
aI2
aI5
aI-3
aI4
aI1
aI4
aI2
aa(lp3492
I5
aI-3
aI4
aI1
aI4
aI2
aI5
aI-2
aa(lp3493
I4
aI1
aI4
aI2
aI5
aI-2
aI4
aI-3
aa(lp3494
I4
aI2
aI5
aI-2
aI4
aI-3
aI2
aI2
aa(lp3495
I5
aI-2
aI4
aI-3
aI2
aI2
aI3
aI3
aa(lp3496
I4
aI-3
aI2
aI2
aI3
aI3
aI5
aI-3
aa(lp3497
I2
aI2
aI3
aI3
aI5
aI-3
aI3
aI-4
aa(lp3498
I3
aI3
aI5
aI-3
aI3
aI-4
aI1
aI2
aa(lp3499
I5
aI-3
aI3
aI-4
aI1
aI2
aI2
aI5
aa(lp3500
I3
aI-4
aI1
aI2
aI2
aI5
aI5
aI-2
aa(lp3501
I1
aI2
aI2
aI5
aI5
aI-2
aI4
aI2
aa(lp3502
I2
aI5
aI5
aI-2
aI4
aI2
aI5
aI-3
aa(lp3503
I5
aI-2
aI4
aI2
aI5
aI-3
aI3
aI3
aa(lp3504
I4
aI2
aI5
aI-3
aI3
aI3
aI5
aI-5
aa(lp3505
I5
aI-3
aI3
aI3
aI5
aI-5
aI2
aI5
aa(lp3506
I3
aI3
aI5
aI-5
aI2
aI5
aI5
aI-7
aa(lp3507
I5
aI-5
aI2
aI5
aI5
aI-7
aI1
aI4
aa(lp3508
I2
aI5
aI5
aI-7
aI1
aI4
aI3
aI-2
aa(lp3509
I5
aI-7
aI1
aI4
aI3
aI-2
aI2
aI3
aa(lp3510
I1
aI4
aI3
aI-2
aI2
aI3
aI4
aI-1
aa(lp3511
I3
aI-2
aI2
aI3
aI4
aI-1
aI3
aI3
aa(lp3512
I2
aI3
aI4
aI-1
aI3
aI3
aI5
aI-2
aa(lp3513
I4
aI-1
aI3
aI3
aI5
aI-2
aI4
aI-3
aa(lp3514
I3
aI3
aI5
aI-2
aI4
aI-3
aI2
aI-2
aa(lp3515
I5
aI-2
aI4
aI-3
aI2
aI-2
aI1
aI4
aa(lp3516
I4
aI-3
aI2
aI-2
aI1
aI4
aI3
aI-2
aa(lp3517
I2
aI-2
aI1
aI4
aI3
aI-2
aI2
aI3
aa(lp3518
I1
aI4
aI3
aI-2
aI2
aI3
aI4
aI-1
aa(lp3519
I3
aI-2
aI2
aI3
aI4
aI-1
aI3
aI3
aa(lp3520
I2
aI3
aI4
aI-1
aI3
aI3
aI5
aI-2
aa(lp3521
I4
aI-1
aI3
aI3
aI5
aI-2
aI4
aI-3
aa(lp3522
I3
aI3
aI5
aI-2
aI4
aI-3
aI2
aI-2
aa(lp3523
I5
aI-2
aI4
aI-3
aI2
aI-2
aI1
aI7
aa(lp3524
I4
aI-3
aI2
aI-2
aI1
aI7
aI5
aI-2
aa(lp3525
I2
aI-2
aI1
aI7
aI5
aI-2
aI4
aI-1
aa(lp3526
I1
aI7
aI5
aI-2
aI4
aI-1
aI3
aI3
aa(lp3527
I5
aI-2
aI4
aI-1
aI3
aI3
aI5
aI-2
aa(lp3528
I4
aI-1
aI3
aI3
aI5
aI-2
aI4
aI-1
aa(lp3529
I3
aI3
aI5
aI-2
aI4
aI-1
aI3
aI-2
aa(lp3530
I5
aI-2
aI4
aI-1
aI3
aI-2
aI2
aI-2
aa(lp3531
I4
aI-1
aI3
aI-2
aI2
aI-2
aI1
aI2
aa(lp3532
I3
aI-2
aI2
aI-2
aI1
aI2
aI2
aI2
aa(lp3533
I2
aI-2
aI1
aI2
aI2
aI2
aI3
aI-2
aa(lp3534
I1
aI2
aI2
aI2
aI3
aI-2
aI2
aI-2
aa(lp3535
I1
aI5
aI2
aI2
aI3
aI1
aI4
aI1
aa(lp3536
I2
aI2
aI3
aI1
aI4
aI1
aI5
aI-9
aa(lp3537
I3
aI1
aI4
aI1
aI5
aI-9
aI1
aI5
aa(lp3538
I4
aI1
aI5
aI-9
aI1
aI5
aI2
aI2
aa(lp3539
I5
aI-9
aI1
aI5
aI2
aI2
aI3
aI1
aa(lp3540
I1
aI5
aI2
aI2
aI3
aI1
aI4
aI1
aa(lp3541
I2
aI2
aI3
aI1
aI4
aI1
aI5
aI-3
aa(lp3542
I3
aI1
aI4
aI1
aI5
aI-3
aI2
aI1
aa(lp3543
I4
aI1
aI5
aI-3
aI2
aI1
aI1
aI4
aa(lp3544
I5
aI-3
aI2
aI1
aI1
aI4
aI2
aI1
aa(lp3545
I1
aI5
aI2
aI2
aI3
aI1
aI4
aI1
aa(lp3546
I2
aI2
aI3
aI1
aI4
aI1
aI5
aI-9
aa(lp3547
I3
aI1
aI4
aI1
aI5
aI-9
aI1
aI5
aa(lp3548
I4
aI1
aI5
aI-9
aI1
aI5
aI2
aI2
aa(lp3549
I5
aI-9
aI1
aI5
aI2
aI2
aI3
aI1
aa(lp3550
I1
aI5
aI2
aI2
aI3
aI1
aI4
aI1
aa(lp3551
I2
aI2
aI3
aI1
aI4
aI1
aI5
aI-2
aa(lp3552
I3
aI1
aI4
aI1
aI5
aI-2
aI2
aI5
aa(lp3553
I4
aI1
aI5
aI-2
aI2
aI5
aI5
aI-8
aa(lp3554
I5
aI-2
aI2
aI5
aI5
aI-8
aI1
aI3
aa(lp3555
I2
aI5
aI5
aI-8
aI1
aI3
aI4
aI-2
aa(lp3556
I5
aI-8
aI1
aI3
aI4
aI-2
aI3
aI-3
aa(lp3557
I1
aI3
aI4
aI-2
aI3
aI-3
aI2
aI-2
aa(lp3558
I4
aI-2
aI3
aI-3
aI2
aI-2
aI2
aI-5
aa(lp3559
I3
aI-3
aI2
aI-2
aI2
aI-5
aI1
aI9
aa(lp3560
I2
aI-2
aI2
aI-5
aI1
aI9
aI5
aI-4
aa(lp3561
I2
aI-5
aI1
aI9
aI5
aI-4
aI3
aI1
aa(lp3562
I1
aI9
aI5
aI-4
aI3
aI1
aI2
aI-1
aa(lp3563
I5
aI-4
aI3
aI1
aI2
aI-1
aI1
aI2
aa(lp3564
I3
aI1
aI2
aI-1
aI1
aI2
aI2
aI-2
aa(lp3565
I2
aI-1
aI1
aI2
aI2
aI-2
aI1
aI0
aa(lp3566
I1
aI2
aI2
aI-2
aI1
aI0
aI1
aI9
aa(lp3567
I2
aI-2
aI1
aI0
aI1
aI9
aI5
aI-4
aa(lp3568
I1
aI0
aI1
aI9
aI5
aI-4
aI3
aI-5
aa(lp3569
I1
aI9
aI5
aI-4
aI3
aI-5
aI1
aI1
aa(lp3570
I5
aI-4
aI3
aI-5
aI1
aI1
aI2
aI-1
aa(lp3571
I3
aI-5
aI1
aI1
aI2
aI-1
aI1
aI2
aa(lp3572
I1
aI1
aI2
aI-1
aI1
aI2
aI2
aI-2
aa(lp3573
I2
aI-1
aI1
aI2
aI2
aI-2
aI1
aI0
aa(lp3574
I1
aI2
aI2
aI-2
aI1
aI0
aI1
aI9
aa(lp3575
I2
aI-2
aI1
aI0
aI1
aI9
aI5
aI-4
aa(lp3576
I1
aI0
aI1
aI9
aI5
aI-4
aI3
aI-5
aa(lp3577
I1
aI9
aI5
aI-4
aI3
aI-5
aI1
aI5
aa(lp3578
I5
aI-4
aI3
aI-5
aI1
aI5
aI2
aI-1
aa(lp3579
I3
aI-5
aI1
aI5
aI2
aI-1
aI1
aI-1
aa(lp3580
I1
aI5
aI2
aI-1
aI1
aI-1
aI2
aI0
aa(lp3581
I2
aI-1
aI1
aI-1
aI2
aI0
aI1
aI0
aa(lp3582
I1
aI-1
aI2
aI0
aI1
aI0
aI2
aI0
aa(lp3583
I2
aI0
aI1
aI0
aI2
aI0
aI3
aI-2
aa(lp3584
I1
aI0
aI2
aI0
aI3
aI-2
aI2
aI1
aa(lp3585
I2
aI0
aI3
aI-2
aI2
aI1
aI1
aI0
aa(lp3586
I3
aI-2
aI2
aI1
aI1
aI0
aI3
aI3
aa(lp3587
I2
aI1
aI1
aI0
aI3
aI3
aI5
aI-7
aa(lp3588
I1
aI0
aI3
aI3
aI5
aI-7
aI1
aI-1
aa(lp3589
I3
aI3
aI5
aI-7
aI1
aI-1
aI3
aI3
aa(lp3590
I5
aI-7
aI1
aI-1
aI3
aI3
aI5
aI-7
aa(lp3591
I1
aI-1
aI3
aI3
aI5
aI-7
aI1
aI2
aa(lp3592
I3
aI3
aI5
aI-7
aI1
aI2
aI3
aI3
aa(lp3593
I5
aI-7
aI1
aI2
aI3
aI3
aI5
aI-6
aa(lp3594
I1
aI2
aI3
aI3
aI5
aI-6
aI1
aI1
aa(lp3595
I3
aI3
aI5
aI-6
aI1
aI1
aI3
aI-5
aa(lp3596
I5
aI-6
aI1
aI1
aI3
aI-5
aI1
aI9
aa(lp3597
I1
aI1
aI3
aI-5
aI1
aI9
aI5
aI-4
aa(lp3598
I2
aI5
aI4
aI-5
aI2
aI-3
aI1
aI3
aa(lp3599
I4
aI-5
aI2
aI-3
aI1
aI3
aI4
aI-3
aa(lp3600
I2
aI-3
aI1
aI3
aI4
aI-3
aI2
aI3
aa(lp3601
I1
aI3
aI4
aI-3
aI2
aI3
aI5
aI-2
aa(lp3602
I4
aI-3
aI2
aI3
aI5
aI-2
aI4
aI-3
aa(lp3603
I2
aI3
aI5
aI-2
aI4
aI-3
aI2
aI-3
aa(lp3604
I5
aI-2
aI4
aI-3
aI2
aI-3
aI1
aI1
aa(lp3605
I4
aI-3
aI2
aI-3
aI1
aI1
aI2
aI4
aa(lp3606
I2
aI-3
aI1
aI1
aI2
aI4
aI4
aI-9
aa(lp3607
I1
aI1
aI2
aI4
aI4
aI-9
aI1
aI12
aa(lp3608
I2
aI4
aI4
aI-9
aI1
aI12
aI2
aI5
aa(lp3609
I4
aI-9
aI1
aI12
aI2
aI5
aI4
aI-5
aa(lp3610
I1
aI12
aI2
aI5
aI4
aI-5
aI2
aI-3
aa(lp3611
I2
aI5
aI4
aI-5
aI2
aI-3
aI1
aI3
aa(lp3612
I4
aI-5
aI2
aI-3
aI1
aI3
aI4
aI-3
aa(lp3613
I2
aI-3
aI1
aI3
aI4
aI-3
aI2
aI3
aa(lp3614
I1
aI3
aI4
aI-3
aI2
aI3
aI5
aI-2
aa(lp3615
I4
aI-3
aI2
aI3
aI5
aI-2
aI4
aI-3
aa(lp3616
I2
aI3
aI5
aI-2
aI4
aI-3
aI2
aI-3
aa(lp3617
I5
aI-2
aI4
aI-3
aI2
aI-3
aI1
aI1
aa(lp3618
I4
aI-3
aI2
aI-3
aI1
aI1
aI2
aI-5
aa(lp3619
I2
aI-3
aI1
aI1
aI2
aI-5
aI1
aI4
aa(lp3620
I1
aI1
aI2
aI-5
aI1
aI4
aI2
aI3
aa(lp3621
I2
aI-5
aI1
aI4
aI2
aI3
aI4
aI-7
aa(lp3622
I1
aI4
aI2
aI3
aI4
aI-7
aI1
aI5
aa(lp3623
I2
aI3
aI4
aI-7
aI1
aI5
aI2
aI4
aa(lp3624
I4
aI-7
aI1
aI5
aI2
aI4
aI4
aI1
aa(lp3625
I1
aI5
aI2
aI4
aI4
aI1
aI5
aI-3
aa(lp3626
I2
aI4
aI4
aI1
aI5
aI-3
aI3
aI2
aa(lp3627
I4
aI1
aI5
aI-3
aI3
aI2
aI4
aI-4
aa(lp3628
I5
aI-3
aI3
aI2
aI4
aI-4
aI2
aI2
aa(lp3629
I3
aI2
aI4
aI-4
aI2
aI2
aI4
aI-3
aa(lp3630
I4
aI-4
aI2
aI2
aI4
aI-3
aI2
aI-4
aa(lp3631
I2
aI2
aI4
aI-3
aI2
aI-4
aI1
aI0
aa(lp3632
I4
aI-3
aI2
aI-4
aI1
aI0
aI1
aI0
aa(lp3633
I2
aI-4
aI1
aI0
aI1
aI0
aI1
aI4
aa(lp3634
I1
aI0
aI1
aI0
aI1
aI4
aI2
aI3
aa(lp3635
I1
aI0
aI1
aI4
aI2
aI3
aI3
aI-2
aa(lp3636
I1
aI4
aI2
aI3
aI3
aI-2
aI2
aI4
aa(lp3637
I2
aI3
aI3
aI-2
aI2
aI4
aI1
aI3
aa(lp3638
I3
aI-2
aI2
aI4
aI1
aI3
aI2
aI-1
aa(lp3639
I2
aI4
aI1
aI3
aI2
aI-1
aI1
aI3
aa(lp3640
I1
aI3
aI2
aI-1
aI1
aI3
aI2
aI3
aa(lp3641
I2
aI-1
aI1
aI3
aI2
aI3
aI4
aI-6
aa(lp3642
I1
aI3
aI2
aI3
aI4
aI-6
aI1
aI1
aa(lp3643
I2
aI3
aI4
aI-6
aI1
aI1
aI2
aI0
aa(lp3644
I4
aI-6
aI1
aI1
aI2
aI0
aI3
aI0
aa(lp3645
I1
aI1
aI2
aI0
aI3
aI0
aI2
aI0
aa(lp3646
I2
aI0
aI3
aI0
aI2
aI0
aI1
aI0
aa(lp3647
I3
aI0
aI2
aI0
aI1
aI0
aI2
aI5
aa(lp3648
I2
aI0
aI1
aI0
aI2
aI5
aI4
aI-5
aa(lp3649
I1
aI0
aI2
aI5
aI4
aI-5
aI2
aI-3
aa(lp3650
I2
aI5
aI4
aI-5
aI2
aI-3
aI1
aI3
aa(lp3651
I4
aI-5
aI2
aI-3
aI1
aI3
aI4
aI-3
aa(lp3652
I2
aI-3
aI1
aI3
aI4
aI-3
aI2
aI3
aa(lp3653
I1
aI3
aI4
aI-3
aI2
aI3
aI5
aI-2
aa(lp3654
I4
aI-3
aI2
aI3
aI5
aI-2
aI4
aI-3
aa(lp3655
I2
aI3
aI5
aI-2
aI4
aI-3
aI2
aI-3
aa(lp3656
I5
aI-2
aI4
aI-3
aI2
aI-3
aI1
aI1
aa(lp3657
I4
aI-3
aI2
aI-3
aI1
aI1
aI2
aI4
aa(lp3658
I2
aI-3
aI1
aI1
aI2
aI4
aI4
aI-9
aa(lp3659
I1
aI1
aI2
aI4
aI4
aI-9
aI1
aI12
aa(lp3660
I2
aI4
aI4
aI-9
aI1
aI12
aI2
aI5
aa(lp3661
I4
aI-9
aI1
aI12
aI2
aI5
aI4
aI-5
aa(lp3662
I1
aI12
aI2
aI5
aI4
aI-5
aI2
aI-3
aa(lp3663
I2
aI5
aI4
aI-5
aI2
aI-3
aI1
aI3
aa(lp3664
I4
aI-5
aI2
aI-3
aI1
aI3
aI4
aI-3
aa(lp3665
I2
aI-3
aI1
aI3
aI4
aI-3
aI2
aI3
aa(lp3666
I1
aI3
aI4
aI-3
aI2
aI3
aI5
aI-2
aa(lp3667
I4
aI-3
aI2
aI3
aI5
aI-2
aI4
aI-3
aa(lp3668
I2
aI3
aI5
aI-2
aI4
aI-3
aI2
aI-3
aa(lp3669
I5
aI-2
aI4
aI-3
aI2
aI-3
aI1
aI1
aa(lp3670
I1
aI2
aI2
aI2
aI3
aI1
aI4
aI2
aa(lp3671
I2
aI2
aI3
aI1
aI4
aI2
aI5
aI-3
aa(lp3672
I3
aI1
aI4
aI2
aI5
aI-3
aI1
aI1
aa(lp3673
I4
aI2
aI5
aI-3
aI1
aI1
aI2
aI2
aa(lp3674
I5
aI-3
aI1
aI1
aI2
aI2
aI3
aI2
aa(lp3675
I1
aI1
aI2
aI2
aI3
aI2
aI1
aI2
aa(lp3676
I2
aI2
aI3
aI2
aI1
aI2
aI2
aI1
aa(lp3677
I1
aI2
aI2
aI2
aI3
aI1
aI4
aI2
aa(lp3678
I2
aI2
aI3
aI1
aI4
aI2
aI5
aI-3
aa(lp3679
I3
aI1
aI4
aI2
aI5
aI-3
aI1
aI1
aa(lp3680
I4
aI2
aI5
aI-3
aI1
aI1
aI2
aI2
aa(lp3681
I5
aI-3
aI1
aI1
aI2
aI2
aI3
aI2
aa(lp3682
I1
aI1
aI2
aI2
aI3
aI2
aI1
aI2
aa(lp3683
I2
aI2
aI3
aI2
aI1
aI2
aI2
aI1
aa(lp3684
I3
aI2
aI1
aI2
aI2
aI1
aI3
aI-5
aa(lp3685
I1
aI2
aI2
aI1
aI3
aI-5
aI1
aI2
aa(lp3686
I2
aI1
aI3
aI-5
aI1
aI2
aI2
aI-2
aa(lp3687
I3
aI-5
aI1
aI2
aI2
aI-2
aI1
aI-2
aa(lp3688
I1
aI2
aI2
aI-2
aI1
aI-2
aI3
aI-1
aa(lp3689
I2
aI-2
aI1
aI-2
aI3
aI-1
aI2
aI-2
aa(lp3690
I1
aI-2
aI3
aI-1
aI2
aI-2
aI1
aI-2
aa(lp3691
I3
aI-1
aI2
aI-2
aI1
aI-2
aI2
aI2
aa(lp3692
I2
aI-2
aI1
aI-2
aI2
aI2
aI1
aI5
aa(lp3693
I1
aI-2
aI2
aI2
aI1
aI5
aI3
aI4
aa(lp3694
I2
aI2
aI1
aI5
aI3
aI4
aI5
aI-4
aa(lp3695
I1
aI5
aI3
aI4
aI5
aI-4
aI3
aI4
aa(lp3696
I3
aI4
aI5
aI-4
aI3
aI4
aI5
aI-7
aa(lp3697
I5
aI-4
aI3
aI4
aI5
aI-7
aI1
aI3
aa(lp3698
I3
aI4
aI5
aI-7
aI1
aI3
aI2
aI5
aa(lp3699
I5
aI-7
aI1
aI3
aI2
aI5
aI5
aI-5
aa(lp3700
I1
aI3
aI2
aI5
aI5
aI-5
aI2
aI5
aa(lp3701
I1
aI5
aI3
aI4
aI5
aI-4
aI3
aI4
aa(lp3702
I3
aI4
aI5
aI-4
aI3
aI4
aI5
aI-7
aa(lp3703
I5
aI-4
aI3
aI4
aI5
aI-7
aI1
aI3
aa(lp3704
I3
aI4
aI5
aI-7
aI1
aI3
aI3
aI5
aa(lp3705
I5
aI-7
aI1
aI3
aI3
aI5
aI5
aI-5
aa(lp3706
I1
aI3
aI3
aI5
aI5
aI-5
aI3
aI5
aa(lp3707
I3
aI5
aI5
aI-5
aI3
aI5
aI5
aI-1
aa(lp3708
I5
aI-5
aI3
aI5
aI5
aI-1
aI4
aI-2
aa(lp3709
I3
aI5
aI5
aI-1
aI4
aI-2
aI3
aI-2
aa(lp3710
I5
aI-1
aI4
aI-2
aI3
aI-2
aI2
aI-2
aa(lp3711
I4
aI-2
aI3
aI-2
aI2
aI-2
aI1
aI-1
aa(lp3712
I3
aI-2
aI2
aI-2
aI1
aI-1
aI3
aI-2
aa(lp3713
I2
aI-2
aI1
aI-1
aI3
aI-2
aI2
aI-2
aa(lp3714
I1
aI0
aI1
aI4
aI3
aI-4
aI1
aI-3
aa(lp3715
I1
aI4
aI3
aI-4
aI1
aI-3
aI1
aI5
aa(lp3716
I3
aI-4
aI1
aI-3
aI1
aI5
aI2
aI4
aa(lp3717
I1
aI-3
aI1
aI5
aI2
aI4
aI5
aI-9
aa(lp3718
I1
aI5
aI2
aI4
aI5
aI-9
aI1
aI5
aa(lp3719
I2
aI4
aI5
aI-9
aI1
aI5
aI2
aI4
aa(lp3720
I5
aI-9
aI1
aI5
aI2
aI4
aI5
aI-9
aa(lp3721
I1
aI5
aI2
aI4
aI5
aI-9
aI1
aI5
aa(lp3722
I2
aI4
aI5
aI-9
aI1
aI5
aI2
aI4
aa(lp3723
I5
aI-9
aI1
aI5
aI2
aI4
aI5
aI-9
aa(lp3724
I1
aI5
aI2
aI4
aI5
aI-9
aI1
aI5
aa(lp3725
I2
aI4
aI5
aI-9
aI1
aI5
aI2
aI4
aa(lp3726
I5
aI-9
aI1
aI5
aI2
aI4
aI5
aI-9
aa(lp3727
I1
aI5
aI2
aI4
aI5
aI-9
aI1
aI5
aa(lp3728
I2
aI4
aI5
aI-9
aI1
aI5
aI2
aI4
aa(lp3729
I5
aI-9
aI1
aI5
aI2
aI4
aI5
aI-9
aa(lp3730
I1
aI5
aI2
aI4
aI5
aI-9
aI1
aI5
aa(lp3731
I2
aI4
aI5
aI-9
aI1
aI5
aI2
aI4
aa(lp3732
I5
aI-9
aI1
aI5
aI2
aI4
aI5
aI-7
aa(lp3733
I1
aI5
aI2
aI4
aI5
aI-7
aI1
aI3
aa(lp3734
I2
aI4
aI5
aI-7
aI1
aI3
aI2
aI5
aa(lp3735
I5
aI-7
aI1
aI3
aI2
aI5
aI5
aI-8
aa(lp3736
I1
aI3
aI2
aI5
aI5
aI-8
aI1
aI3
aa(lp3737
I2
aI5
aI5
aI-8
aI1
aI3
aI2
aI5
aa(lp3738
I5
aI-8
aI1
aI3
aI2
aI5
aI5
aI-8
aa(lp3739
I1
aI3
aI2
aI5
aI5
aI-8
aI1
aI3
aa(lp3740
I2
aI5
aI5
aI-8
aI1
aI3
aI2
aI5
aa(lp3741
I5
aI-8
aI1
aI3
aI2
aI5
aI5
aI-8
aa(lp3742
I1
aI3
aI2
aI5
aI5
aI-8
aI1
aI3
aa(lp3743
I2
aI5
aI5
aI-8
aI1
aI3
aI2
aI5
aa(lp3744
I5
aI-8
aI1
aI3
aI2
aI5
aI5
aI-8
aa(lp3745
I1
aI3
aI2
aI5
aI5
aI-8
aI1
aI3
aa(lp3746
I2
aI5
aI5
aI-8
aI1
aI3
aI2
aI5
aa(lp3747
I5
aI-8
aI1
aI3
aI2
aI5
aI5
aI-8
aa(lp3748
I1
aI3
aI2
aI5
aI5
aI-8
aI1
aI3
aa(lp3749
I2
aI5
aI5
aI-8
aI1
aI3
aI2
aI5
aa(lp3750
I5
aI-8
aI1
aI3
aI2
aI5
aI5
aI-5
aa(lp3751
I1
aI3
aI2
aI5
aI5
aI-5
aI1
aI4
aa(lp3752
I2
aI5
aI5
aI-5
aI1
aI4
aI3
aI3
aa(lp3753
I5
aI-5
aI1
aI4
aI3
aI3
aI5
aI-7
aa(lp3754
I1
aI4
aI3
aI3
aI5
aI-7
aI1
aI4
aa(lp3755
I3
aI3
aI5
aI-7
aI1
aI4
aI3
aI3
aa(lp3756
I5
aI-7
aI1
aI4
aI3
aI3
aI5
aI-7
aa(lp3757
I1
aI4
aI3
aI3
aI5
aI-7
aI1
aI4
aa(lp3758
I3
aI3
aI5
aI-7
aI1
aI4
aI3
aI3
aa(lp3759
I5
aI-7
aI1
aI4
aI3
aI3
aI5
aI-7
aa(lp3760
I1
aI4
aI3
aI3
aI5
aI-7
aI1
aI4
aa(lp3761
I3
aI3
aI5
aI-7
aI1
aI4
aI3
aI3
aa(lp3762
I5
aI-7
aI1
aI4
aI3
aI3
aI5
aI-7
aa(lp3763
I1
aI4
aI3
aI3
aI5
aI-7
aI1
aI4
aa(lp3764
I3
aI3
aI5
aI-7
aI1
aI4
aI3
aI3
aa(lp3765
I5
aI-7
aI1
aI4
aI3
aI3
aI5
aI-7
aa(lp3766
I1
aI4
aI3
aI3
aI5
aI-7
aI1
aI4
aa(lp3767
I3
aI3
aI5
aI-7
aI1
aI4
aI3
aI3
aa(lp3768
I5
aI-7
aI1
aI4
aI3
aI3
aI5
aI-7
aa(lp3769
I1
aI4
aI3
aI3
aI5
aI-7
aI1
aI5
aa(lp3770
I3
aI3
aI5
aI-7
aI1
aI5
aI2
aI4
aa(lp3771
I5
aI-7
aI1
aI5
aI2
aI4
aI5
aI-9
aa(lp3772
I1
aI5
aI2
aI4
aI5
aI-9
aI1
aI5
aa(lp3773
I2
aI4
aI5
aI-9
aI1
aI5
aI2
aI4
aa(lp3774
I5
aI-9
aI1
aI5
aI2
aI4
aI5
aI-9
aa(lp3775
I1
aI5
aI2
aI4
aI5
aI-9
aI1
aI5
aa(lp3776
I2
aI4
aI5
aI-9
aI1
aI5
aI2
aI4
aa(lp3777
I5
aI-9
aI1
aI5
aI2
aI4
aI5
aI-9
aa(lp3778
I1
aI5
aI2
aI4
aI5
aI-9
aI1
aI5
aa(lp3779
I2
aI4
aI5
aI-9
aI1
aI5
aI2
aI4
aa(lp3780
I5
aI-9
aI1
aI5
aI2
aI4
aI5
aI-9
aa(lp3781
I1
aI5
aI2
aI4
aI5
aI-9
aI1
aI5
aa(lp3782
I2
aI4
aI5
aI-9
aI1
aI5
aI2
aI4
aa(lp3783
I5
aI-9
aI1
aI5
aI2
aI4
aI5
aI-9
aa(lp3784
I1
aI5
aI2
aI4
aI5
aI-9
aI1
aI5
aa(lp3785
I2
aI4
aI5
aI-9
aI1
aI5
aI2
aI4
aa(lp3786
I1
aI8
aI5
aI0
aI5
aI-8
aI1
aI3
aa(lp3787
I5
aI0
aI5
aI-8
aI1
aI3
aI5
aI-2
aa(lp3788
I5
aI-8
aI1
aI3
aI5
aI-2
aI4
aI-2
aa(lp3789
I1
aI3
aI5
aI-2
aI4
aI-2
aI3
aI-3
aa(lp3790
I3
aI1
aI4
aI-3
aI2
aI-2
aI1
aI4
aa(lp3791
I4
aI-3
aI2
aI-2
aI1
aI4
aI3
aI3
aa(lp3792
I2
aI-2
aI1
aI4
aI3
aI3
aI5
aI-3
aa(lp3793
I1
aI4
aI3
aI3
aI5
aI-3
aI3
aI-4
aa(lp3794
I3
aI1
aI4
aI-3
aI2
aI-2
aI1
aI4
aa(lp3795
I4
aI-3
aI2
aI-2
aI1
aI4
aI3
aI3
aa(lp3796
I2
aI-2
aI1
aI4
aI3
aI3
aI5
aI-3
aa(lp3797
I1
aI4
aI3
aI3
aI5
aI-3
aI3
aI-4
aa(lp3798
I5
aI-2
aI4
aI-1
aI3
aI-2
aI2
aI-2
aa(lp3799
I4
aI-1
aI3
aI-2
aI2
aI-2
aI1
aI4
aa(lp3800
I3
aI-2
aI2
aI-2
aI1
aI4
aI3
aI-4
aa(lp3801
I2
aI-2
aI1
aI4
aI3
aI-4
aI2
aI-5
aa(lp3802
I1
aI4
aI3
aI-4
aI2
aI-5
aI1
aI4
aa(lp3803
I3
aI-4
aI2
aI-5
aI1
aI4
aI2
aI3
aa(lp3804
I2
aI-5
aI1
aI4
aI2
aI3
aI5
aI-3
aa(lp3805
I1
aI4
aI2
aI3
aI5
aI-3
aI2
aI-4
aa(lp3806
I2
aI3
aI5
aI-3
aI2
aI-4
aI1
aI5
aa(lp3807
I5
aI-3
aI2
aI-4
aI1
aI5
aI2
aI-5
aa(lp3808
I2
aI-4
aI1
aI5
aI2
aI-5
aI1
aI5
aa(lp3809
I1
aI5
aI2
aI-5
aI1
aI5
aI2
aI4
aa(lp3810
I2
aI-5
aI1
aI5
aI2
aI4
aI3
aI3
aa(lp3811
I1
aI5
aI2
aI4
aI3
aI3
aI5
aI-2
aa(lp3812
I2
aI4
aI3
aI3
aI5
aI-2
aI4
aI-1
aa(lp3813
I3
aI3
aI5
aI-2
aI4
aI-1
aI3
aI-2
aa(lp3814
I5
aI-2
aI4
aI-1
aI3
aI-2
aI2
aI-2
aa(lp3815
I4
aI-1
aI3
aI-2
aI2
aI-2
aI1
aI4
aa(lp3816
I3
aI-2
aI2
aI-2
aI1
aI4
aI3
aI-4
aa(lp3817
I2
aI-2
aI1
aI4
aI3
aI-4
aI2
aI-5
aa(lp3818
I1
aI4
aI3
aI-4
aI2
aI-5
aI1
aI4
aa(lp3819
I3
aI-4
aI2
aI-5
aI1
aI4
aI3
aI3
aa(lp3820
I2
aI-5
aI1
aI4
aI3
aI3
aI5
aI-3
aa(lp3821
I1
aI4
aI3
aI3
aI5
aI-3
aI3
aI-4
aa(lp3822
I3
aI3
aI5
aI-3
aI3
aI-4
aI1
aI5
aa(lp3823
I5
aI-3
aI3
aI-4
aI1
aI5
aI4
aI0
aa(lp3824
I3
aI-4
aI1
aI5
aI4
aI0
aI3
aI0
aa(lp3825
I1
aI5
aI4
aI0
aI3
aI0
aI2
aI0
aa(lp3826
I4
aI0
aI3
aI0
aI2
aI0
aI1
aI2
aa(lp3827
I3
aI0
aI2
aI0
aI1
aI2
aI1
aI5
aa(lp3828
I2
aI0
aI1
aI2
aI1
aI5
aI2
aI4
aa(lp3829
I1
aI2
aI1
aI5
aI2
aI4
aI3
aI3
aa(lp3830
I1
aI5
aI2
aI4
aI3
aI3
aI5
aI0
aa(lp3831
I2
aI4
aI3
aI3
aI5
aI0
aI5
aI0
aa(lp3832
I3
aI3
aI5
aI0
aI5
aI0
aI5
aI0
aa(lp3833
I5
aI0
aI5
aI0
aI5
aI0
aI5
aI-2
aa(lp3834
I5
aI0
aI5
aI0
aI5
aI-2
aI4
aI-1
aa(lp3835
I5
aI0
aI5
aI-2
aI4
aI-1
aI3
aI-2
aa(lp3836
I5
aI-2
aI4
aI-1
aI3
aI-2
aI2
aI-7
aa(lp3837
I4
aI-1
aI3
aI-2
aI2
aI-7
aI1
aI7
aa(lp3838
I3
aI-2
aI2
aI-7
aI1
aI7
aI3
aI3
aa(lp3839
I2
aI-7
aI1
aI7
aI3
aI3
aI5
aI0
aa(lp3840
I1
aI7
aI3
aI3
aI5
aI0
aI5
aI0
aa(lp3841
I3
aI3
aI5
aI0
aI5
aI0
aI5
aI0
aa(lp3842
I5
aI0
aI5
aI0
aI5
aI0
aI5
aI0
aa(lp3843
I5
aI0
aI5
aI0
aI5
aI0
aI5
aI-1
aa(lp3844
I5
aI0
aI5
aI0
aI5
aI-1
aI4
aI-2
aa(lp3845
I5
aI0
aI5
aI-1
aI4
aI-2
aI3
aI-2
aa(lp3846
I5
aI-1
aI4
aI-2
aI3
aI-2
aI2
aI-5
aa(lp3847
I4
aI-2
aI3
aI-2
aI2
aI-5
aI1
aI5
aa(lp3848
I3
aI-2
aI2
aI-5
aI1
aI5
aI2
aI4
aa(lp3849
I2
aI-5
aI1
aI5
aI2
aI4
aI3
aI3
aa(lp3850
I1
aI5
aI2
aI4
aI3
aI3
aI5
aI0
aa(lp3851
I2
aI4
aI3
aI3
aI5
aI0
aI5
aI0
aa(lp3852
I3
aI3
aI5
aI0
aI5
aI0
aI5
aI0
aa(lp3853
I5
aI0
aI5
aI0
aI5
aI0
aI5
aI-2
aa(lp3854
I5
aI0
aI5
aI0
aI5
aI-2
aI4
aI-1
aa(lp3855
I5
aI0
aI5
aI-2
aI4
aI-1
aI3
aI-2
aa(lp3856
I5
aI-2
aI4
aI-1
aI3
aI-2
aI2
aI-7
aa(lp3857
I4
aI-1
aI3
aI-2
aI2
aI-7
aI1
aI7
aa(lp3858
I3
aI-2
aI2
aI-7
aI1
aI7
aI3
aI3
aa(lp3859
I2
aI-7
aI1
aI7
aI3
aI3
aI5
aI0
aa(lp3860
I1
aI7
aI3
aI3
aI5
aI0
aI5
aI-1
aa(lp3861
I3
aI3
aI5
aI0
aI5
aI-1
aI4
aI-2
aa(lp3862
I5
aI0
aI5
aI-1
aI4
aI-2
aI3
aI-2
aa(lp3863
I5
aI-1
aI4
aI-2
aI3
aI-2
aI3
aI0
aa(lp3864
I4
aI-2
aI3
aI-2
aI3
aI0
aI3
aI0
aa(lp3865
I3
aI-2
aI3
aI0
aI3
aI0
aI3
aI0
aa(lp3866
I3
aI0
aI3
aI0
aI3
aI0
aI3
aI0
aa(lp3867
I3
aI0
aI3
aI0
aI3
aI0
aI3
aI0
aa(lp3868
I3
aI0
aI3
aI0
aI3
aI0
aI3
aI0
aa(lp3869
I3
aI0
aI3
aI0
aI3
aI0
aI3
aI-2
aa(lp3870
I3
aI0
aI3
aI0
aI3
aI-2
aI2
aI-1
aa(lp3871
I3
aI0
aI3
aI-2
aI2
aI-1
aI1
aI-2
aa(lp3872
I3
aI-2
aI2
aI-1
aI1
aI-2
aI2
aI-2
aa(lp3873
I2
aI-1
aI1
aI-2
aI2
aI-2
aI1
aI4
aa(lp3874
I1
aI-2
aI2
aI-2
aI1
aI4
aI4
aI-4
aa(lp3875
I2
aI-2
aI1
aI4
aI4
aI-4
aI3
aI-5
aa(lp3876
I1
aI4
aI4
aI-4
aI3
aI-5
aI1
aI4
aa(lp3877
I4
aI-4
aI3
aI-5
aI1
aI4
aI2
aI3
aa(lp3878
I3
aI-5
aI1
aI4
aI2
aI3
aI4
aI-3
aa(lp3879
I1
aI4
aI2
aI3
aI4
aI-3
aI2
aI-4
aa(lp3880
I2
aI3
aI4
aI-3
aI2
aI-4
aI1
aI5
aa(lp3881
I4
aI-3
aI2
aI-4
aI1
aI5
aI3
aI-5
aa(lp3882
I2
aI-4
aI1
aI5
aI3
aI-5
aI1
aI5
aa(lp3883
I1
aI5
aI3
aI-5
aI1
aI5
aI2
aI4
aa(lp3884
I3
aI-5
aI1
aI5
aI2
aI4
aI3
aI3
aa(lp3885
I1
aI5
aI2
aI4
aI3
aI3
aI5
aI-2
aa(lp3886
I2
aI4
aI3
aI3
aI5
aI-2
aI4
aI-1
aa(lp3887
I3
aI3
aI5
aI-2
aI4
aI-1
aI3
aI-2
aa(lp3888
I5
aI-2
aI4
aI-1
aI3
aI-2
aI2
aI-2
aa(lp3889
I4
aI-1
aI3
aI-2
aI2
aI-2
aI1
aI4
aa(lp3890
I3
aI-2
aI2
aI-2
aI1
aI4
aI3
aI-4
aa(lp3891
I2
aI-2
aI1
aI4
aI3
aI-4
aI3
aI-5
aa(lp3892
I1
aI4
aI3
aI-4
aI3
aI-5
aI1
aI4
aa(lp3893
I3
aI-4
aI3
aI-5
aI1
aI4
aI3
aI3
aa(lp3894
I3
aI-5
aI1
aI4
aI3
aI3
aI5
aI-3
aa(lp3895
I1
aI4
aI3
aI3
aI5
aI-3
aI3
aI-4
aa(lp3896
I3
aI3
aI5
aI-3
aI3
aI-4
aI2
aI5
aa(lp3897
I5
aI-3
aI3
aI-4
aI2
aI5
aI4
aI0
aa(lp3898
I3
aI-4
aI2
aI5
aI4
aI0
aI4
aI0
aa(lp3899
I2
aI5
aI4
aI0
aI4
aI0
aI4
aI0
aa(lp3900
I1
aI4
aI2
aI3
aI3
aI5
aI5
aI-1
aa(lp3901
I2
aI3
aI3
aI5
aI5
aI-1
aI4
aI-4
aa(lp3902
I3
aI5
aI5
aI-1
aI4
aI-4
aI2
aI2
aa(lp3903
I5
aI-1
aI4
aI-4
aI2
aI2
aI3
aI2
aa(lp3904
I4
aI-4
aI2
aI2
aI3
aI2
aI4
aI1
aa(lp3905
I2
aI2
aI3
aI2
aI4
aI1
aI5
aI-5
aa(lp3906
I3
aI2
aI4
aI1
aI5
aI-5
aI2
aI-3
aa(lp3907
I4
aI1
aI5
aI-5
aI2
aI-3
aI1
aI0
aa(lp3908
I5
aI-5
aI2
aI-3
aI1
aI0
aI1
aI0
aa(lp3909
I2
aI-3
aI1
aI0
aI1
aI0
aI2
aI3
aa(lp3910
I1
aI0
aI1
aI0
aI2
aI3
aI4
aI2
aa(lp3911
I1
aI0
aI2
aI3
aI4
aI2
aI5
aI-2
aa(lp3912
I2
aI3
aI4
aI2
aI5
aI-2
aI4
aI-2
aa(lp3913
I4
aI2
aI5
aI-2
aI4
aI-2
aI3
aI-1
aa(lp3914
I5
aI-2
aI4
aI-2
aI3
aI-1
aI2
aI-2
aa(lp3915
I4
aI-2
aI3
aI-1
aI2
aI-2
aI1
aI-2
aa(lp3916
I3
aI-1
aI2
aI-2
aI1
aI-2
aI1
aI4
aa(lp3917
I2
aI-2
aI1
aI-2
aI1
aI4
aI2
aI3
aa(lp3918
I1
aI-2
aI1
aI4
aI2
aI3
aI3
aI5
aa(lp3919
I1
aI4
aI2
aI3
aI3
aI5
aI5
aI-1
aa(lp3920
I2
aI3
aI3
aI5
aI5
aI-1
aI4
aI-4
aa(lp3921
I3
aI5
aI5
aI-1
aI4
aI-4
aI2
aI2
aa(lp3922
I5
aI-1
aI4
aI-4
aI2
aI2
aI3
aI2
aa(lp3923
I4
aI-4
aI2
aI2
aI3
aI2
aI4
aI1
aa(lp3924
I2
aI2
aI3
aI2
aI4
aI1
aI5
aI-5
aa(lp3925
I3
aI2
aI4
aI1
aI5
aI-5
aI2
aI-3
aa(lp3926
I4
aI1
aI5
aI-5
aI2
aI-3
aI1
aI3
aa(lp3927
I5
aI-5
aI2
aI-3
aI1
aI3
aI2
aI5
aa(lp3928
I2
aI-3
aI1
aI3
aI2
aI5
aI5
aI-1
aa(lp3929
I1
aI3
aI2
aI5
aI5
aI-1
aI4
aI-2
aa(lp3930
I2
aI5
aI5
aI-1
aI4
aI-2
aI3
aI-2
aa(lp3931
I5
aI-1
aI4
aI-2
aI3
aI-2
aI2
aI-2
aa(lp3932
I4
aI-2
aI3
aI-2
aI2
aI-2
aI1
aI-1
aa(lp3933
I3
aI-2
aI2
aI-2
aI1
aI-1
aI3
aI0
aa(lp3934
I2
aI-2
aI1
aI-1
aI3
aI0
aI3
aI-2
aa(lp3935
I1
aI-1
aI3
aI0
aI3
aI-2
aI2
aI-2
aa(lp3936
I3
aI0
aI3
aI-2
aI2
aI-2
aI1
aI2
aa(lp3937
I3
aI-2
aI2
aI-2
aI1
aI2
aI1
aI0
aa(lp3938
I2
aI-2
aI1
aI2
aI1
aI0
aI1
aI0
aa(lp3939
I1
aI2
aI1
aI0
aI1
aI0
aI1
aI3
aa(lp3940
I1
aI0
aI1
aI0
aI1
aI3
aI2
aI-1
aa(lp3941
I1
aI0
aI1
aI3
aI2
aI-1
aI1
aI3
aa(lp3942
I1
aI3
aI2
aI-1
aI1
aI3
aI2
aI5
aa(lp3943
I2
aI-1
aI1
aI3
aI2
aI5
aI5
aI-1
aa(lp3944
I1
aI3
aI2
aI5
aI5
aI-1
aI4
aI-2
aa(lp3945
I2
aI5
aI5
aI-1
aI4
aI-2
aI3
aI-2
aa(lp3946
I5
aI-1
aI4
aI-2
aI3
aI-2
aI2
aI-2
aa(lp3947
I4
aI-2
aI3
aI-2
aI2
aI-2
aI1
aI-1
aa(lp3948
I3
aI-2
aI2
aI-2
aI1
aI-1
aI2
aI-2
aa(lp3949
I2
aI-2
aI1
aI-1
aI2
aI-2
aI1
aI0
aa(lp3950
I1
aI-1
aI2
aI-2
aI1
aI0
aI1
aI0
aa(lp3951
I2
aI-2
aI1
aI0
aI1
aI0
aI1
aI3
aa(lp3952
I1
aI0
aI1
aI0
aI1
aI3
aI2
aI-1
aa(lp3953
I1
aI0
aI1
aI3
aI2
aI-1
aI1
aI3
aa(lp3954
I1
aI3
aI2
aI-1
aI1
aI3
aI2
aI5
aa(lp3955
I2
aI-1
aI1
aI3
aI2
aI5
aI5
aI-1
aa(lp3956
I1
aI3
aI2
aI5
aI5
aI-1
aI4
aI-2
aa(lp3957
I2
aI5
aI5
aI-1
aI4
aI-2
aI3
aI-2
aa(lp3958
I5
aI-1
aI4
aI-2
aI3
aI-2
aI2
aI-2
aa(lp3959
I4
aI-2
aI3
aI-2
aI2
aI-2
aI1
aI-1
aa(lp3960
I3
aI-2
aI2
aI-2
aI1
aI-1
aI2
aI1
aa(lp3961
I2
aI-2
aI1
aI-1
aI2
aI1
aI3
aI-5
aa(lp3962
I1
aI-1
aI2
aI1
aI3
aI-5
aI1
aI5
aa(lp3963
I2
aI1
aI3
aI-5
aI1
aI5
aI2
aI4
aa(lp3964
I3
aI-5
aI1
aI5
aI2
aI4
aI3
aI3
aa(lp3965
I1
aI5
aI2
aI4
aI3
aI3
aI5
aI-3
aa(lp3966
I2
aI4
aI3
aI3
aI5
aI-3
aI3
aI3
aa(lp3967
I3
aI3
aI5
aI-3
aI3
aI3
aI5
aI-3
aa(lp3968
I5
aI-3
aI3
aI3
aI5
aI-3
aI3
aI-2
aa(lp3969
I3
aI3
aI5
aI-3
aI3
aI-2
aI2
aI-3
aa(lp3970
I5
aI-3
aI3
aI-2
aI2
aI-3
aI1
aI3
aa(lp3971
I3
aI-2
aI2
aI-3
aI1
aI3
aI4
aI-2
aa(lp3972
I2
aI-3
aI1
aI3
aI4
aI-2
aI3
aI-1
aa(lp3973
I1
aI3
aI4
aI-2
aI3
aI-1
aI2
aI-2
aa(lp3974
I4
aI-2
aI3
aI-1
aI2
aI-2
aI1
aI3
aa(lp3975
I3
aI-1
aI2
aI-2
aI1
aI3
aI4
aI-1
aa(lp3976
I2
aI-2
aI1
aI3
aI4
aI-1
aI3
aI-2
aa(lp3977
I1
aI3
aI4
aI-1
aI3
aI-2
aI2
aI-2
aa(lp3978
I4
aI-1
aI3
aI-2
aI2
aI-2
aI1
aI4
aa(lp3979
I3
aI-2
aI2
aI-2
aI1
aI4
aI4
aI-2
aa(lp3980
I2
aI-2
aI1
aI4
aI4
aI-2
aI3
aI-2
aa(lp3981
I1
aI4
aI4
aI-2
aI3
aI-2
aI1
aI0
aa(lp3982
I5
aI-1
aI4
aI-2
aI3
aI-2
aI2
aI-1
aa(lp3983
I4
aI-2
aI3
aI-2
aI2
aI-1
aI1
aI-2
aa(lp3984
I3
aI-2
aI2
aI-1
aI1
aI-2
aI3
aI-2
aa(lp3985
I2
aI-1
aI1
aI-2
aI3
aI-2
aI2
aI-2
aa(lp3986
I1
aI-2
aI3
aI-2
aI2
aI-2
aI1
aI-1
aa(lp3987
I3
aI-2
aI2
aI-2
aI1
aI-1
aI3
aI-2
aa(lp3988
I4
aI2
aI5
aI-2
aI4
aI-1
aI3
aI-2
aa(lp3989
I5
aI-2
aI4
aI-1
aI3
aI-2
aI2
aI-2
aa(lp3990
I4
aI-1
aI3
aI-2
aI2
aI-2
aI1
aI-1
aa(lp3991
I3
aI-2
aI2
aI-2
aI1
aI-1
aI4
aI-2
aa(lp3992
I2
aI-2
aI1
aI-1
aI4
aI-2
aI3
aI-2
aa(lp3993
I1
aI-1
aI4
aI-2
aI3
aI-2
aI2
aI-2
aa(lp3994
I4
aI-2
aI3
aI-2
aI2
aI-2
aI1
aI-1
aa(lp3995
I3
aI-2
aI2
aI-2
aI1
aI-1
aI3
aI-2
aa(lp3996
I2
aI-2
aI1
aI-1
aI3
aI-2
aI2
aI-2
aa(lp3997
I1
aI-1
aI3
aI-2
aI2
aI-2
aI1
aI4
aa(lp3998
I3
aI-2
aI2
aI-2
aI1
aI4
aI2
aI3
aa(lp3999
I2
aI-2
aI1
aI4
aI2
aI3
aI3
aI5
aa(lp4000
I1
aI4
aI2
aI3
aI3
aI5
aI4
aI-5
aa(lp4001
I2
aI3
aI3
aI5
aI4
aI-5
aI3
aI-3
aa(lp4002
I3
aI5
aI4
aI-5
aI3
aI-3
aI2
aI-4
aa(lp4003
I1
aI2
aI2
aI2
aI3
aI1
aI1
aI2
aa(lp4004
I2
aI2
aI3
aI1
aI1
aI2
aI2
aI2
aa(lp4005
I3
aI1
aI1
aI2
aI2
aI2
aI3
aI2
aa(lp4006
I1
aI2
aI2
aI2
aI3
aI2
aI4
aI1
aa(lp4007
I2
aI2
aI3
aI2
aI4
aI1
aI1
aI2
aa(lp4008
I3
aI2
aI4
aI1
aI1
aI2
aI2
aI2
aa(lp4009
I4
aI1
aI1
aI2
aI2
aI2
aI3
aI1
aa(lp4010
I1
aI2
aI2
aI2
aI3
aI1
aI4
aI-3
aa(lp4011
I2
aI2
aI3
aI1
aI4
aI-3
aI2
aI-2
aa(lp4012
I3
aI1
aI4
aI-3
aI2
aI-2
aI1
aI4
aa(lp4013
I4
aI-3
aI2
aI-2
aI1
aI4
aI2
aI3
aa(lp4014
I2
aI-2
aI1
aI4
aI2
aI3
aI3
aI5
aa(lp4015
I1
aI4
aI2
aI3
aI3
aI5
aI5
aI-5
aa(lp4016
I2
aI3
aI3
aI5
aI5
aI-5
aI3
aI-3
aa(lp4017
I3
aI5
aI5
aI-5
aI3
aI-3
aI2
aI-4
aa(lp4018
I1
aI2
aI1
aI3
aI2
aI5
aI3
aI4
aa(lp4019
I1
aI3
aI2
aI5
aI3
aI4
aI4
aI3
aa(lp4020
I2
aI5
aI3
aI4
aI4
aI3
aI5
aI-3
aa(lp4021
I3
aI4
aI4
aI3
aI5
aI-3
aI3
aI-2
aa(lp4022
I4
aI3
aI5
aI-3
aI3
aI-2
aI2
aI5
aa(lp4023
I5
aI-3
aI3
aI-2
aI2
aI5
aI5
aI-1
aa(lp4024
I3
aI-2
aI2
aI5
aI5
aI-1
aI4
aI1
aa(lp4025
I2
aI5
aI5
aI-1
aI4
aI1
aI5
aI-5
aa(lp4026
I5
aI-1
aI4
aI1
aI5
aI-5
aI2
aI-3
aa(lp4027
I4
aI1
aI5
aI-5
aI2
aI-3
aI1
aI-2
aa(lp4028
I5
aI-5
aI2
aI-3
aI1
aI-2
aI2
aI5
aa(lp4029
I2
aI-3
aI1
aI-2
aI2
aI5
aI5
aI-1
aa(lp4030
I1
aI-2
aI2
aI5
aI5
aI-1
aI4
aI1
aa(lp4031
I2
aI5
aI5
aI-1
aI4
aI1
aI5
aI-2
aa(lp4032
I5
aI-1
aI4
aI1
aI5
aI-2
aI4
aI-3
aa(lp4033
I4
aI1
aI5
aI-2
aI4
aI-3
aI2
aI-2
aa(lp4034
I5
aI-2
aI4
aI-3
aI2
aI-2
aI1
aI4
aa(lp4035
I4
aI-3
aI2
aI-2
aI1
aI4
aI3
aI3
aa(lp4036
I2
aI-2
aI1
aI4
aI3
aI3
aI5
aI-3
aa(lp4037
I1
aI4
aI3
aI3
aI5
aI-3
aI3
aI-4
aa(lp4038
I1
aI2
aI2
aI2
aI3
aI1
aI4
aI2
aa(lp4039
I2
aI2
aI3
aI1
aI4
aI2
aI5
aI-2
aa(lp4040
I3
aI1
aI4
aI2
aI5
aI-2
aI4
aI-1
aa(lp4041
I4
aI2
aI5
aI-2
aI4
aI-1
aI3
aI-2
aa(lp4042
I5
aI-2
aI4
aI-1
aI3
aI-2
aI2
aI-2
aa(lp4043
I4
aI-1
aI3
aI-2
aI2
aI-2
aI1
aI2
aa(lp4044
I3
aI-2
aI2
aI-2
aI1
aI2
aI2
aI2
aa(lp4045
I2
aI-2
aI1
aI2
aI2
aI2
aI3
aI1
aa(lp4046
I1
aI2
aI2
aI2
aI3
aI1
aI4
aI2
aa(lp4047
I2
aI2
aI3
aI1
aI4
aI2
aI5
aI-2
aa(lp4048
I3
aI1
aI4
aI2
aI5
aI-2
aI4
aI-1
aa(lp4049
I4
aI2
aI5
aI-2
aI4
aI-1
aI3
aI-2
aa(lp4050
I5
aI-2
aI4
aI-1
aI3
aI-2
aI2
aI-2
aa(lp4051
I1
aI2
aI2
aI2
aI3
aI1
aI4
aI2
aa(lp4052
I2
aI2
aI3
aI1
aI4
aI2
aI5
aI-2
aa(lp4053
I3
aI1
aI4
aI2
aI5
aI-2
aI4
aI-1
aa(lp4054
I4
aI2
aI5
aI-2
aI4
aI-1
aI3
aI-2
aa(lp4055
I5
aI-2
aI4
aI-1
aI3
aI-2
aI2
aI-2
aa(lp4056
I4
aI-1
aI3
aI-2
aI2
aI-2
aI1
aI2
aa(lp4057
I3
aI-2
aI2
aI-2
aI1
aI2
aI2
aI2
aa(lp4058
I2
aI-2
aI1
aI2
aI2
aI2
aI3
aI1
aa(lp4059
I1
aI2
aI2
aI2
aI3
aI1
aI4
aI2
aa(lp4060
I2
aI2
aI3
aI1
aI4
aI2
aI5
aI-2
aa(lp4061
I3
aI1
aI4
aI2
aI5
aI-2
aI4
aI-1
aa(lp4062
I4
aI2
aI5
aI-2
aI4
aI-1
aI3
aI-2
aa(lp4063
I5
aI-2
aI4
aI-1
aI3
aI-2
aI2
aI-2
aa(lp4064
I1
aI2
aI2
aI2
aI3
aI1
aI4
aI2
aa(lp4065
I2
aI2
aI3
aI1
aI4
aI2
aI5
aI-2
aa(lp4066
I3
aI1
aI4
aI2
aI5
aI-2
aI4
aI-1
aa(lp4067
I4
aI2
aI5
aI-2
aI4
aI-1
aI3
aI-2
aa(lp4068
I5
aI-2
aI4
aI-1
aI3
aI-2
aI2
aI-2
aa(lp4069
I4
aI-1
aI3
aI-2
aI2
aI-2
aI1
aI2
aa(lp4070
I3
aI-2
aI2
aI-2
aI1
aI2
aI2
aI2
aa(lp4071
I2
aI-2
aI1
aI2
aI2
aI2
aI3
aI1
aa(lp4072
I1
aI2
aI2
aI2
aI3
aI1
aI4
aI2
aa(lp4073
I2
aI2
aI3
aI1
aI4
aI2
aI5
aI-2
aa(lp4074
I3
aI1
aI4
aI2
aI5
aI-2
aI4
aI-1
aa(lp4075
I4
aI2
aI5
aI-2
aI4
aI-1
aI3
aI-2
aa(lp4076
I5
aI-2
aI4
aI-1
aI3
aI-2
aI2
aI-2
aa(lp4077
I5
aI-1
aI4
aI-2
aI3
aI-2
aI2
aI-2
aa(lp4078
I4
aI-2
aI3
aI-2
aI2
aI-2
aI1
aI-1
aa(lp4079
I3
aI-2
aI2
aI-2
aI1
aI-1
aI3
aI-2
aa(lp4080
I2
aI-2
aI1
aI-1
aI3
aI-2
aI2
aI-2
aa(lp4081
I1
aI-1
aI3
aI-2
aI2
aI-2
aI1
aI7
aa(lp4082
I3
aI-2
aI2
aI-2
aI1
aI7
aI5
aI-2
aa(lp4083
I2
aI-2
aI1
aI7
aI5
aI-2
aI4
aI-1
aa(lp4084
I1
aI7
aI5
aI-2
aI4
aI-1
aI3
aI-2
aa(lp4085
I5
aI-2
aI4
aI-1
aI3
aI-2
aI2
aI-2
aa(lp4086
I4
aI-1
aI3
aI-2
aI2
aI-2
aI1
aI-1
aa(lp4087
I3
aI-2
aI2
aI-2
aI1
aI-1
aI2
aI-2
aa(lp4088
I2
aI-2
aI1
aI-1
aI2
aI-2
aI1
aI2
aa(lp4089
I1
aI-1
aI2
aI-2
aI1
aI2
aI2
aI1
aa(lp4090
I2
aI-2
aI1
aI2
aI2
aI1
aI3
aI4
aa(lp4091
I1
aI2
aI2
aI1
aI3
aI4
aI5
aI-4
aa(lp4092
I1
aI9
aI5
aI-4
aI3
aI-5
aI1
aI0
aa(lp4093
I5
aI-4
aI3
aI-5
aI1
aI0
aI1
aI0
aa(lp4094
I3
aI-5
aI1
aI0
aI1
aI0
aI1
aI9
aa(lp4095
I1
aI0
aI1
aI0
aI1
aI9
aI5
aI-4
aa(lp4096
I1
aI0
aI1
aI9
aI5
aI-4
aI3
aI-5
aa(lp4097
I1
aI9
aI5
aI-4
aI3
aI-5
aI1
aI0
aa(lp4098
I5
aI-4
aI3
aI-5
aI1
aI0
aI1
aI-2
aa(lp4099
I3
aI-5
aI1
aI0
aI1
aI-2
aI1
aI9
aa(lp4100
I1
aI0
aI1
aI-2
aI1
aI9
aI5
aI-10
aa(lp4101
I1
aI-2
aI1
aI9
aI5
aI-10
aI1
aI8
aa(lp4102
I1
aI9
aI5
aI-10
aI1
aI8
aI4
aI-10
aa(lp4103
I5
aI-10
aI1
aI8
aI4
aI-10
aI1
aI9
aa(lp4104
I1
aI4
aI2
aI3
aI3
aI3
aI5
aI0
aa(lp4105
I2
aI3
aI3
aI3
aI5
aI0
aI5
aI-1
aa(lp4106
I3
aI3
aI5
aI0
aI5
aI-1
aI3
aI3
aa(lp4107
I5
aI0
aI5
aI-1
aI3
aI3
aI5
aI-7
aa(lp4108
I5
aI-1
aI3
aI3
aI5
aI-7
aI1
aI-5
aa(lp4109
I3
aI3
aI5
aI-7
aI1
aI-5
aI1
aI4
aa(lp4110
I5
aI-7
aI1
aI-5
aI1
aI4
aI2
aI3
aa(lp4111
I1
aI-5
aI1
aI4
aI2
aI3
aI3
aI3
aa(lp4112
I1
aI4
aI2
aI3
aI3
aI3
aI5
aI0
aa(lp4113
I2
aI3
aI3
aI3
aI5
aI0
aI5
aI-1
aa(lp4114
I3
aI3
aI5
aI0
aI5
aI-1
aI3
aI3
aa(lp4115
I5
aI0
aI5
aI-1
aI3
aI3
aI5
aI-7
aa(lp4116
I5
aI-1
aI3
aI3
aI5
aI-7
aI1
aI-5
aa(lp4117
I3
aI3
aI5
aI-7
aI1
aI-5
aI1
aI9
aa(lp4118
I5
aI-7
aI1
aI-5
aI1
aI9
aI5
aI-4
aa(lp4119
I1
aI-5
aI1
aI9
aI5
aI-4
aI3
aI-5
aa(lp4120
I1
aI9
aI5
aI-4
aI3
aI-5
aI1
aI0
aa(lp4121
I5
aI-4
aI3
aI-5
aI1
aI0
aI1
aI0
aa(lp4122
I3
aI-5
aI1
aI0
aI1
aI0
aI1
aI9
aa(lp4123
I1
aI0
aI1
aI0
aI1
aI9
aI5
aI-4
aa(lp4124
I1
aI0
aI1
aI9
aI5
aI-4
aI3
aI-5
aa(lp4125
I1
aI9
aI5
aI-4
aI3
aI-5
aI1
aI0
aa(lp4126
I5
aI-4
aI3
aI-5
aI1
aI0
aI1
aI-2
aa(lp4127
I3
aI-5
aI1
aI0
aI1
aI-2
aI1
aI9
aa(lp4128
I1
aI0
aI1
aI-2
aI1
aI9
aI5
aI-10
aa(lp4129
I1
aI-2
aI1
aI9
aI5
aI-10
aI1
aI8
aa(lp4130
I1
aI9
aI5
aI-10
aI1
aI8
aI4
aI-10
aa(lp4131
I5
aI-10
aI1
aI8
aI4
aI-10
aI1
aI9
aa(lp4132
I2
aI0
aI2
aI0
aI2
aI0
aI2
aI0
aa(lp4133
I3
aI3
aI5
aI-2
aI4
aI-3
aI2
aI-2
aa(lp4134
I5
aI-2
aI4
aI-3
aI2
aI-2
aI1
aI0
aa(lp4135
I4
aI-3
aI2
aI-2
aI1
aI0
aI1
aI0
aa(lp4136
I2
aI-2
aI1
aI0
aI1
aI0
aI1
aI0
aa(lp4137
I1
aI0
aI1
aI0
aI1
aI0
aI1
aI0
aa(lp4138
I1
aI0
aI1
aI0
aI1
aI5
aI5
aI-2
aa(lp4139
I1
aI0
aI1
aI5
aI5
aI-2
aI4
aI-3
aa(lp4140
I1
aI5
aI5
aI-2
aI4
aI-3
aI2
aI-2
aa(lp4141
I5
aI-2
aI4
aI-3
aI2
aI-2
aI1
aI0
aa(lp4142
I4
aI-3
aI2
aI-2
aI1
aI0
aI1
aI4
aa(lp4143
I2
aI-2
aI1
aI0
aI1
aI4
aI3
aI-4
aa(lp4144
I1
aI0
aI1
aI4
aI3
aI-4
aI1
aI0
aa(lp4145
I2
aI-3
aI1
aI12
aI5
aI-4
aI3
aI4
aa(lp4146
I1
aI12
aI5
aI-4
aI3
aI4
aI5
aI-4
aa(lp4147
I5
aI-4
aI3
aI4
aI5
aI-4
aI3
aI-5
aa(lp4148
I3
aI4
aI5
aI-4
aI3
aI-5
aI2
aI-3
aa(lp4149
I5
aI-4
aI3
aI-5
aI2
aI-3
aI1
aI12
aa(lp4150
I3
aI-5
aI2
aI-3
aI1
aI12
aI5
aI-4
aa(lp4151
I2
aI-3
aI1
aI12
aI5
aI-4
aI3
aI4
aa(lp4152
I1
aI12
aI5
aI-4
aI3
aI4
aI5
aI-4
aa(lp4153
I5
aI-4
aI3
aI4
aI5
aI-4
aI3
aI-5
aa(lp4154
I3
aI4
aI5
aI-4
aI3
aI-5
aI2
aI5
aa(lp4155
I5
aI-4
aI3
aI-5
aI2
aI5
aI5
aI-8
aa(lp4156
I3
aI-5
aI2
aI5
aI5
aI-8
aI1
aI3
aa(lp4157
I2
aI5
aI5
aI-8
aI1
aI3
aI3
aI-2
aa(lp4158
I5
aI-8
aI1
aI3
aI3
aI-2
aI2
aI0
aa(lp4159
I1
aI3
aI3
aI-2
aI2
aI0
aI2
aI-3
aa(lp4160
I3
aI-2
aI2
aI0
aI2
aI-3
aI1
aI12
aa(lp4161
I2
aI0
aI2
aI-3
aI1
aI12
aI5
aI-3
aa(lp4162
I2
aI-3
aI1
aI12
aI5
aI-3
aI3
aI3
aa(lp4163
I1
aI12
aI5
aI-3
aI3
aI3
aI5
aI-3
aa(lp4164
I5
aI-3
aI3
aI3
aI5
aI-3
aI3
aI-6
aa(lp4165
I3
aI3
aI5
aI-3
aI3
aI-6
aI2
aI-3
aa(lp4166
I5
aI-3
aI3
aI-6
aI2
aI-3
aI1
aI12
aa(lp4167
I3
aI-6
aI2
aI-3
aI1
aI12
aI3
aI2
aa(lp4168
I2
aI-3
aI1
aI12
aI3
aI2
aI4
aI-2
aa(lp4169
I1
aI12
aI3
aI2
aI4
aI-2
aI3
aI2
aa(lp4170
I3
aI2
aI4
aI-2
aI3
aI2
aI4
aI1
aa(lp4171
I4
aI-2
aI3
aI2
aI4
aI1
aI5
aI-3
aa(lp4172
I3
aI2
aI4
aI1
aI5
aI-3
aI3
aI-3
aa(lp4173
I4
aI1
aI5
aI-3
aI3
aI-3
aI1
aI1
aa(lp4174
I2
aI0
aI2
aI5
aI5
aI-2
aI4
aI-3
aa(lp4175
I2
aI5
aI5
aI-2
aI4
aI-3
aI2
aI-2
aa(lp4176
I5
aI-2
aI4
aI-3
aI2
aI-2
aI1
aI0
aa(lp4177
I4
aI-3
aI2
aI-2
aI1
aI0
aI1
aI0
aa(lp4178
I2
aI-2
aI1
aI0
aI1
aI0
aI1
aI0
aa(lp4179
I1
aI0
aI1
aI0
aI1
aI0
aI1
aI0
aa(lp4180
I1
aI0
aI1
aI0
aI1
aI0
aI1
aI0
aa(lp4181
I1
aI0
aI1
aI0
aI1
aI0
aI1
aI0
aa(lp4182
I1
aI0
aI1
aI0
aI1
aI0
aI1
aI9
aa(lp4183
I1
aI0
aI1
aI0
aI1
aI9
aI5
aI-2
aa(lp4184
I1
aI0
aI1
aI9
aI5
aI-2
aI4
aI-2
aa(lp4185
I1
aI9
aI5
aI-2
aI4
aI-2
aI3
aI-1
aa(lp4186
I5
aI-2
aI4
aI-2
aI3
aI-1
aI2
aI-2
aa(lp4187
I4
aI-2
aI3
aI-1
aI2
aI-2
aI1
aI-2
aa(lp4188
I3
aI-1
aI2
aI-2
aI1
aI-2
aI3
aI-2
aa(lp4189
I2
aI-2
aI1
aI-2
aI3
aI-2
aI2
aI-1
aa(lp4190
I1
aI-2
aI3
aI-2
aI2
aI-1
aI1
aI3
aa(lp4191
I3
aI-2
aI2
aI-1
aI1
aI3
aI2
aI9
aa(lp4192
I2
aI-1
aI1
aI3
aI2
aI9
aI5
aI-2
aa(lp4193
I1
aI3
aI2
aI9
aI5
aI-2
aI4
aI-2
aa(lp4194
I2
aI9
aI5
aI-2
aI4
aI-2
aI3
aI-1
aa(lp4195
I5
aI-2
aI4
aI-2
aI3
aI-1
aI2
aI-2
aa(lp4196
I4
aI-2
aI3
aI-1
aI2
aI-2
aI1
aI-2
aa(lp4197
I3
aI-1
aI2
aI-2
aI1
aI-2
aI3
aI-2
aa(lp4198
I2
aI-2
aI1
aI-2
aI3
aI-2
aI2
aI-1
aa(lp4199
I1
aI-2
aI3
aI-2
aI2
aI-1
aI1
aI3
aa(lp4200
I3
aI-2
aI2
aI-1
aI1
aI3
aI2
aI5
aa(lp4201
I2
aI-1
aI1
aI3
aI2
aI5
aI5
aI-1
aa(lp4202
I1
aI3
aI2
aI5
aI5
aI-1
aI4
aI-2
aa(lp4203
I2
aI5
aI5
aI-1
aI4
aI-2
aI3
aI-2
aa(lp4204
I5
aI-1
aI4
aI-2
aI3
aI-2
aI2
aI-2
aa(lp4205
I4
aI-2
aI3
aI-2
aI2
aI-2
aI1
aI-1
aa(lp4206
I3
aI-2
aI2
aI-2
aI1
aI-1
aI3
aI-2
aa(lp4207
I2
aI-2
aI1
aI-1
aI3
aI-2
aI2
aI2
aa(lp4208
I1
aI-1
aI3
aI-2
aI2
aI2
aI3
aI3
aa(lp4209
I3
aI-2
aI2
aI2
aI3
aI3
aI5
aI-2
aa(lp4210
I2
aI2
aI3
aI3
aI5
aI-2
aI4
aI0
aa(lp4211
I3
aI3
aI5
aI-2
aI4
aI0
aI2
aI9
aa(lp4212
I5
aI-2
aI4
aI0
aI2
aI9
aI5
aI-2
aa(lp4213
I4
aI0
aI2
aI9
aI5
aI-2
aI4
aI-1
aa(lp4214
I2
aI9
aI5
aI-2
aI4
aI-1
aI3
aI-2
aa(lp4215
I5
aI-2
aI4
aI-1
aI3
aI-2
aI2
aI-2
aa(lp4216
I4
aI-1
aI3
aI-2
aI2
aI-2
aI1
aI-2
aa(lp4217
I3
aI-2
aI2
aI-2
aI1
aI-2
aI3
aI-1
aa(lp4218
I2
aI-2
aI1
aI-2
aI3
aI-1
aI2
aI-2
aa(lp4219
I1
aI-2
aI3
aI-1
aI2
aI-2
aI1
aI3
aa(lp4220
I3
aI-1
aI2
aI-2
aI1
aI3
aI2
aI2
aa(lp4221
I2
aI-2
aI1
aI3
aI2
aI2
aI1
aI2
aa(lp4222
I1
aI3
aI2
aI2
aI1
aI2
aI2
aI2
aa(lp4223
I2
aI2
aI1
aI2
aI2
aI2
aI3
aI1
aa(lp4224
I1
aI2
aI2
aI2
aI3
aI1
aI1
aI2
aa(lp4225
I2
aI2
aI3
aI1
aI1
aI2
aI2
aI2
aa(lp4226
I3
aI1
aI1
aI2
aI2
aI2
aI3
aI1
aa(lp4227
I1
aI2
aI2
aI2
aI3
aI1
aI4
aI2
aa(lp4228
I2
aI2
aI3
aI1
aI4
aI2
aI5
aI-2
aa(lp4229
I3
aI1
aI4
aI2
aI5
aI-2
aI4
aI-3
aa(lp4230
I4
aI2
aI5
aI-2
aI4
aI-3
aI3
aI-3
aa(lp4231
I5
aI-2
aI4
aI-3
aI3
aI-3
aI2
aI1
aa(lp4232
I4
aI-3
aI3
aI-3
aI2
aI1
aI3
aI0
aa(lp4233
I2
aI1
aI3
aI2
aI4
aI-2
aI3
aI-2
aa(lp4234
I3
aI2
aI4
aI-2
aI3
aI-2
aI2
aI-1
aa(lp4235
I4
aI-2
aI3
aI-2
aI2
aI-1
aI1
aI-1
aa(lp4236
I3
aI-2
aI2
aI-1
aI1
aI-1
aI2
aI1
aa(lp4237
I2
aI-1
aI1
aI-1
aI2
aI1
aI3
aI1
aa(lp4238
I1
aI-1
aI2
aI1
aI3
aI1
aI4
aI-1
aa(lp4239
I2
aI1
aI3
aI1
aI4
aI-1
aI3
aI-2
aa(lp4240
I3
aI1
aI4
aI-1
aI3
aI-2
aI2
aI-2
aa(lp4241
I4
aI-1
aI3
aI-2
aI2
aI-2
aI1
aI1
aa(lp4242
I3
aI-2
aI2
aI-2
aI1
aI1
aI2
aI1
aa(lp4243
I2
aI-2
aI1
aI1
aI2
aI1
aI3
aI-1
aa(lp4244
I1
aI1
aI2
aI1
aI3
aI-1
aI2
aI1
aa(lp4245
I2
aI1
aI3
aI-1
aI2
aI1
aI3
aI1
aa(lp4246
I3
aI-1
aI2
aI1
aI3
aI1
aI4
aI1
aa(lp4247
I2
aI1
aI3
aI1
aI4
aI1
aI5
aI0
aa(lp4248
I3
aI1
aI4
aI1
aI5
aI0
aI5
aI5
aa(lp4249
I4
aI1
aI5
aI0
aI5
aI5
aI3
aI-2
aa(lp4250
I5
aI0
aI5
aI5
aI3
aI-2
aI2
aI-1
aa(lp4251
I5
aI5
aI3
aI-2
aI2
aI-1
aI1
aI1
aa(lp4252
I3
aI-2
aI2
aI-1
aI1
aI1
aI2
aI5
aa(lp4253
I2
aI-1
aI1
aI1
aI2
aI5
aI5
aI-5
aa(lp4254
I1
aI1
aI2
aI5
aI5
aI-5
aI3
aI-2
aa(lp4255
I2
aI5
aI5
aI-5
aI3
aI-2
aI2
aI-1
aa(lp4256
I5
aI-5
aI3
aI-2
aI2
aI-1
aI1
aI-1
aa(lp4257
I3
aI-2
aI2
aI-1
aI1
aI-1
aI2
aI1
aa(lp4258
I2
aI-1
aI1
aI-1
aI2
aI1
aI1
aI3
aa(lp4259
I1
aI-1
aI2
aI1
aI1
aI3
aI3
aI-3
aa(lp4260
I2
aI1
aI1
aI3
aI3
aI-3
aI2
aI-2
aa(lp4261
I1
aI3
aI3
aI-3
aI2
aI-2
aI1
aI9
aa(lp4262
I3
aI-3
aI2
aI-2
aI1
aI9
aI5
aI-2
aa(lp4263
I2
aI-2
aI1
aI9
aI5
aI-2
aI4
aI-3
aa(lp4264
I1
aI9
aI5
aI-2
aI4
aI-3
aI2
aI3
aa(lp4265
I5
aI-2
aI4
aI-3
aI2
aI3
aI4
aI-2
aa(lp4266
I4
aI-3
aI2
aI3
aI4
aI-2
aI3
aI0
aa(lp4267
I2
aI3
aI4
aI-2
aI3
aI0
aI4
aI-2
aa(lp4268
I4
aI-2
aI3
aI0
aI4
aI-2
aI3
aI-4
aa(lp4269
I3
aI0
aI4
aI-2
aI3
aI-4
aI2
aI1
aa(lp4270
I4
aI-2
aI3
aI-4
aI2
aI1
aI1
aI5
aa(lp4271
I3
aI-4
aI2
aI1
aI1
aI5
aI4
aI-2
aa(lp4272
I2
aI1
aI1
aI5
aI4
aI-2
aI3
aI-1
aa(lp4273
I1
aI5
aI4
aI-2
aI3
aI-1
aI1
aI8
aa(lp4274
I4
aI-2
aI3
aI-1
aI1
aI8
aI5
aI-5
aa(lp4275
I3
aI-1
aI1
aI8
aI5
aI-5
aI3
aI0
aa(lp4276
I1
aI8
aI5
aI-5
aI3
aI0
aI3
aI-2
aa(lp4277
I5
aI-5
aI3
aI0
aI3
aI-2
aI2
aI-1
aa(lp4278
I3
aI0
aI3
aI-2
aI2
aI-1
aI1
aI1
aa(lp4279
I3
aI-2
aI2
aI-1
aI1
aI1
aI4
aI-4
aa(lp4280
I2
aI-1
aI1
aI1
aI4
aI-4
aI2
aI1
aa(lp4281
I1
aI1
aI4
aI-4
aI2
aI1
aI1
aI5
aa(lp4282
I4
aI-4
aI2
aI1
aI1
aI5
aI4
aI-2
aa(lp4283
I2
aI1
aI1
aI5
aI4
aI-2
aI3
aI-1
aa(lp4284
I1
aI5
aI4
aI-2
aI3
aI-1
aI1
aI8
aa(lp4285
I4
aI-2
aI3
aI-1
aI1
aI8
aI5
aI-5
aa(lp4286
I3
aI-1
aI1
aI8
aI5
aI-5
aI3
aI3
aa(lp4287
I1
aI8
aI5
aI-5
aI3
aI3
aI4
aI0
aa(lp4288
I5
aI-5
aI3
aI3
aI4
aI0
aI4
aI0
aa(lp4289
I3
aI3
aI4
aI0
aI4
aI0
aI4
aI0
aa(lp4290
I4
aI0
aI4
aI0
aI4
aI0
aI4
aI-1
aa(lp4291
I4
aI0
aI4
aI0
aI4
aI-1
aI3
aI3
aa(lp4292
I4
aI0
aI4
aI-1
aI3
aI3
aI5
aI-1
aa(lp4293
I4
aI-1
aI3
aI3
aI5
aI-1
aI4
aI1
aa(lp4294
I3
aI3
aI5
aI-1
aI4
aI1
aI5
aI-3
aa(lp4295
I5
aI-1
aI4
aI1
aI5
aI-3
aI3
aI-4
aa(lp4296
I4
aI1
aI5
aI-3
aI3
aI-4
aI2
aI-1
aa(lp4297
I5
aI-3
aI3
aI-4
aI2
aI-1
aI1
aI3
aa(lp4298
I3
aI-4
aI2
aI-1
aI1
aI3
aI3
aI-1
aa(lp4299
I2
aI-1
aI1
aI3
aI3
aI-1
aI2
aI1
aa(lp4300
I1
aI3
aI3
aI-1
aI2
aI1
aI3
aI-2
aa(lp4301
I3
aI-1
aI2
aI1
aI3
aI-2
aI2
aI-3
aa(lp4302
I2
aI1
aI3
aI-2
aI2
aI-3
aI1
aI0
aa(lp4303
I3
aI-2
aI2
aI-3
aI1
aI0
aI2
aI-2
aa(lp4304
I2
aI-3
aI1
aI0
aI2
aI-2
aI1
aI0
aa.